
KL25_DS18_GPRS.elf:     file format elf32-littlearm
KL25_DS18_GPRS.elf
architecture: arm, flags 0x00000012:
EXEC_P, HAS_SYMS
start address 0x00000801

Program Header:
    LOAD off    0x000000b4 vaddr 0x00000000 paddr 0x00000000 align 2**2
         filesz 0x000000c0 memsz 0x000000c0 flags r--
    LOAD off    0x00000174 vaddr 0x00000400 paddr 0x00000400 align 2**0
         filesz 0x00000010 memsz 0x00000010 flags r--
    LOAD off    0x00000184 vaddr 0x00000800 paddr 0x00000800 align 2**2
         filesz 0x00003514 memsz 0x00003514 flags r-x
    LOAD off    0x00003698 vaddr 0x1ffff000 paddr 0x00003d14 align 2**2
         filesz 0x0000001c memsz 0x00000898 flags rw-
private flags = 5000002: [Version5 EABI] [has entry point]

Sections:
Idx Name          Size      VMA       LMA       File off  Algn  Flags
  0 .interrupts   000000c0  00000000  00000000  000000b4  2**2  CONTENTS, ALLOC, LOAD, READONLY, DATA
  1 .flash_config 00000010  00000400  00000400  00000174  2**0  CONTENTS, ALLOC, LOAD, READONLY, DATA
  2 .text         00003514  00000800  00000800  00000184  2**2  CONTENTS, ALLOC, LOAD, READONLY, CODE
  3 .data         0000001c  1ffff000  00003d14  00003698  2**2  CONTENTS, ALLOC, LOAD, DATA
  4 .bss          0000007c  1ffff01c  00003d30  000036b4  2**2  ALLOC
  5 .heap         00000400  1ffff098  00003dac  000036b4  2**0  ALLOC
  6 .stack        00000400  1ffff498  000041ac  000036b4  2**0  ALLOC
  7 .ARM.attributes 00000030  00000000  00000000  000036b4  2**0  CONTENTS, READONLY
  8 .debug_info   0000379e  00000000  00000000  000036e4  2**0  CONTENTS, READONLY, DEBUGGING
  9 .debug_abbrev 00000eae  00000000  00000000  00006e82  2**0  CONTENTS, READONLY, DEBUGGING
 10 .debug_aranges 00000410  00000000  00000000  00007d30  2**3  CONTENTS, READONLY, DEBUGGING
 11 .debug_ranges 00000340  00000000  00000000  00008140  2**0  CONTENTS, READONLY, DEBUGGING
 12 .debug_macro  0000aed0  00000000  00000000  00008480  2**0  CONTENTS, READONLY, DEBUGGING
 13 .debug_line   000031cd  00000000  00000000  00013350  2**0  CONTENTS, READONLY, DEBUGGING
 14 .debug_str    0003605f  00000000  00000000  0001651d  2**0  CONTENTS, READONLY, DEBUGGING
 15 .comment      00000070  00000000  00000000  0004c57c  2**0  CONTENTS, READONLY
 16 .debug_frame  00000e58  00000000  00000000  0004c5ec  2**2  CONTENTS, READONLY, DEBUGGING
SYMBOL TABLE:
00000000 l    d  .interrupts	00000000 .interrupts
00000400 l    d  .flash_config	00000000 .flash_config
00000800 l    d  .text	00000000 .text
1ffff000 l    d  .data	00000000 .data
1ffff01c l    d  .bss	00000000 .bss
1ffff098 l    d  .heap	00000000 .heap
1ffff498 l    d  .stack	00000000 .stack
00000000 l    d  .ARM.attributes	00000000 .ARM.attributes
00000000 l    d  .debug_info	00000000 .debug_info
00000000 l    d  .debug_abbrev	00000000 .debug_abbrev
00000000 l    d  .debug_aranges	00000000 .debug_aranges
00000000 l    d  .debug_ranges	00000000 .debug_ranges
00000000 l    d  .debug_macro	00000000 .debug_macro
00000000 l    d  .debug_line	00000000 .debug_line
00000000 l    d  .debug_str	00000000 .debug_str
00000000 l    d  .comment	00000000 .comment
00000000 l    d  .debug_frame	00000000 .debug_frame
00000000 l    df *ABS*	00000000 ./03_MCU/startup_MKL25Z4.o
00000000 l    df *ABS*	00000000 _udivsi3.o
00000850 l       .text	00000000 .udivsi3_skip_div0_test
00000000 l    df *ABS*	00000000 _dvmd_tls.o
00000000 l    df *ABS*	00000000 _arm_cmpsf2.o
00000000 l    df *ABS*	00000000 libgcc2.c
00000000 l    df *ABS*	00000000 eqsf2.c
00000000 l    df *ABS*	00000000 gesf2.c
00000000 l    df *ABS*	00000000 lesf2.c
00000000 l    df *ABS*	00000000 mulsf3.c
00000000 l    df *ABS*	00000000 subsf3.c
00000000 l    df *ABS*	00000000 fixsfsi.c
00000000 l    df *ABS*	00000000 floatunsisf.c
00000000 l    df *ABS*	00000000 _clzsi2.o
00000000 l    df *ABS*	00000000 isr.c
1ffff01c l     O .bss	00000001 data_count.6069
1ffff01d l     O .bss	00000001 Received_count.6068
00000000 l    df *ABS*	00000000 main.c
00000000 l    df *ABS*	00000000 gprs.c
00000000 l    df *ABS*	00000000 light.c
00000000 l    df *ABS*	00000000 delay.c
00000000 l    df *ABS*	00000000 OLED.c
00000000 l    df *ABS*	00000000 DS18B20.c
00000000 l    df *ABS*	00000000 uart.c
00002524 l     F .text	0000002c NVIC_EnableIRQ
00003ce4 l     O .text	00000008 UART_ARR
1ffff004 l     O .data	00000003 table_irq_uart
00000000 l    df *ABS*	00000000 tpm.c
00002bf4 l     F .text	0000002c NVIC_EnableIRQ
00000000 l    df *ABS*	00000000 gpio.c
00000000 l    df *ABS*	00000000 system_MKL25Z4.c
00000000 l    df *ABS*	00000000 memcpy-stub.c
00000000 l    df *ABS*	00000000 strlen.c
00000000 l    df *ABS*	00000000 strncmp.c
00000000 l    df *ABS*	00000000 
00000400 l       *ABS*	00000000 STACK_SIZE
1ffff498 l       .heap	00000000 __HeapLimit
00000400 l       *ABS*	00000000 HEAP_SIZE
00003d14 l       .text	00000000 __DATA_ROM
20002c00 l       *ABS*	00000000 __StackLimit
00001cfc g     F .text	0000008c OLED_WrDat
1ffff098 g       .heap	00000000 __HeapBase
1ffff024 g     O .bss	00000002 gprs_count
1ffff028 g     O .bss	00000003 Date_Re
1ffff000 g       .data	00000000 __data_start__
00000844  w    F .text	00000004 I2C0_IRQHandler
00000844  w    F .text	00000004 HardFault_Handler
00001c60 g     F .text	00000054 OLED_Set_Pos
00000844  w    F .text	00000004 SysTick_Handler
000023a0 g     F .text	0000009c ds18b20_ReadByte
00001a84 g     F .text	0000002a light_init
00000844  w    F .text	00000004 PendSV_Handler
00000844  w    F .text	00000004 NMI_Handler
00003d14 g       .data	00000000 __exidx_end
00002894 g     F .text	0000008a uart_sendN
00000844  w    F .text	00000004 I2C1_IRQHandler
0000198c g     F .text	00000064 GPRS_Send_Data
000011a8 g     F .text	00000040 UART1_IRQHandler
00003d14 g       .text	00000000 __etext
00000844  w    F .text	00000004 DMA2_IRQHandler
00002a6c g     F .text	0000007c uart_enable_re_int
00000844  w    F .text	00000004 TPM0_IRQHandler
1ffff008 g     O .data	0000000c TPM_ARR
1ffff022 g     O .bss	00000002 Temperature
00000844  w    F .text	00000004 LLWU_IRQHandler
00000844  w    F .text	00000004 TSI0_IRQHandler
00001168 g     F .text	00000040 UART0_IRQHandler
00002d74 g     F .text	00000034 tpm_clear_int
00001b64 g     F .text	00000028 delayms
00003254 g     F .text	00000082 memcpy
00000938 g     F .text	00000012 .hidden __aeabi_fcmpgt
00001e08 g     F .text	00000178 OLED_Init
1ffff02c g     O .bss	00000064 Data_Buf
00003d14 g       .data	00000000 __DTOR_END__
1ffff018 g     O .data	00000004 SystemCoreClock
00000844  w    F .text	00000004 ADC0_IRQHandler
00000844  w    F .text	00000004 Reserved39_IRQHandler
0000084c g     F .text	00000088 .hidden __udivsi3
1ffff01c g       .bss	00000000 __START_BSS
00000a74 g     F .text	00000096 .hidden __lesf2
1ffff01c g       .bss	00000000 __bss_start__
00000844  w    F .text	00000004 SPI1_IRQHandler
00000844  w    F .text	00000004 DefaultISR
00000990 g     F .text	00000054 .hidden __nesf2
00000844  w    F .text	00000004 PORTD_IRQHandler
00001834 g     F .text	0000006c GPRS_init
00003d14 g       .data	00000000 __exidx_start
000036f4 g     O .text	000005f0 F8X16
00000844  w    F .text	00000004 TPM2_IRQHandler
00000d60 g     F .text	000002ec .hidden __aeabi_fsub
00000844  w    F .text	00000004 RTC_IRQHandler
00003cec g     O .text	00000014 PORT_ARR
00000800  w    F .text	00000044 Reset_Handler
00001520 g     F .text	00000040 Send_Message
0000094c g     F .text	00000012 .hidden __aeabi_fcmpge
00002ae8 g     F .text	000000e8 uart_get_re_int
000009e4 g     F .text	0000008e .hidden __gtsf2
1ffff014 g     O .data	00000003 TPM_IRQ
00000924 g     F .text	00000012 .hidden __aeabi_fcmple
00000844  w    F .text	00000004 RTC_Seconds_IRQHandler
1ffff020 g     O .bss	00000002 temp_T
00000844  w    F .text	00000004 MCG_IRQHandler
0000176c g     F .text	00000080 judge_right
00002920 g     F .text	00000082 uart_send_string
000011e8 g     F .text	000000b0 UART2_IRQHandler
1ffff01c g       .data	00000000 __data_end__
00003d14 g       .data	00000000 __CTOR_LIST__
000019f0 g     F .text	00000094 GPRS_Config
0000112c g     F .text	0000003c .hidden __clzsi2
00002550 g     F .text	0000029c uart_init
000015ac g     F .text	0000007c Crc_8
1ffff098 g       .bss	00000000 __bss_end__
00000844  w    F .text	00000004 Reserved20_IRQHandler
000032e8 g     F .text	000000b8 strncmp
0000104c g     F .text	00000040 .hidden __aeabi_f2iz
00000990 g     F .text	00000054 .hidden __eqsf2
0000243c g     F .text	00000024 ds18b20_Judge
00002210 g     F .text	0000005e OLED_Print_Num
1ffff090 g     O .bss	00000002 oled_count
00002060 g     F .text	0000012c OLED_P8x16Str
00002308 g     F .text	00000098 ds18b20_Write
000016d4 g     F .text	00000098 Send_AT_Command
000008e8  w    F .text	00000002 .hidden __aeabi_ldiv0
0000108c g     F .text	000000a0 .hidden __aeabi_ui2f
00001af4 g     F .text	00000024 delay_us
00000844  w    F .text	00000004 USB0_IRQHandler
000029a4 g     F .text	000000c8 uart_re1
00001560 g     F .text	0000004c Collection_time
000018a0 g     F .text	000000ec GPRS_Judg_Conn
00001ad8 g     F .text	0000001c light_change
00000000 g       .interrupts	000000c0 __isr_vector
000012e4 g     F .text	000001a0 main
00001b18 g     F .text	0000004a delay_ms
00000844  w    F .text	00000004 PIT_IRQHandler
00000a74 g     F .text	00000096 .hidden __ltsf2
0000084c g     F .text	00000000 .hidden __aeabi_uidiv
00000844  w    F .text	00000004 SVC_Handler
00002460 g     F .text	000000c4 ds18b20_Read
1ffff000 g       .data	00000000 __DATA_RAM
00001628 g     F .text	000000ac Android_Control
00003080 g     F .text	00000034 gpio_get_port_pin
00002d10 g     F .text	00000034 tpm_enable_int
1ffff098 g       .heap	00000000 __end__
000008f4 g     F .text	00000010 .hidden __aeabi_cfcmple
00003d14 g       .data	00000000 __CTOR_END__
00000844  w    F .text	00000004 DMA3_IRQHandler
00003d14 g       .data	00000000 __DTOR_LIST__
1ffff098 g       .bss	00000000 __END_BSS
000030b4 g     F .text	000001a0 SystemInit
00000844  w    F .text	00000004 DMA0_IRQHandler
00000844  w    F .text	00000004 DAC0_IRQHandler
00002d44 g     F .text	00000030 tpm_get_int
000009e4 g     F .text	0000008e .hidden __gesf2
00001f80 g     F .text	000000e0 OLED_P6x8Str
0000229c g     F .text	0000006c ds18b20_Reset
0000218c g     F .text	00000082 OLED_HEXACSII
00001b8c g     F .text	00000048 DelayS
000034cc g     O .text	00000228 F6x8
00001484 g     F .text	0000009c Read_Temperature
20003000 g       *ABS*	00000000 __StackTop
00000904 g     F .text	0000000c .hidden __aeabi_fcmpeq
00000b0c g     F .text	00000254 .hidden __aeabi_fmul
00002270 g     F .text	0000002c ds18b20_Init
1ffff000 g       .data	00000000 _mtb_end
000008ec g     F .text	00000018 .hidden __aeabi_cfrcmple
00003d30 g       .text	00000000 __DATA_END
00000844  w    F .text	00000004 Reserved45_IRQHandler
1ffff092 g     O .bss	00000002 tpm_count
00001298 g     F .text	0000004c TPM1_IRQHandler
00000910 g     F .text	00000012 .hidden __aeabi_fcmplt
00001ab0 g     F .text	00000028 light_control
000008d4 g     F .text	00000012 .hidden __aeabi_uidivmod
00000844  w    F .text	00000004 LVD_LVW_IRQHandler
00002f64 g     F .text	0000011c gpio_pull
00000844  w    F .text	00000004 SPI0_IRQHandler
00000844  w    F .text	00000004 PORTA_IRQHandler
00000000 g       .interrupts	00000000 __VECTOR_TABLE
00000960 g     F .text	0000002e .hidden __aeabi_f2uiz
00000844  w    F .text	00000004 FTFA_IRQHandler
00003d00 g     O .text	00000014 GPIO_ARR
000008f4 g     F .text	00000010 .hidden __aeabi_cfcmpeq
1ffff000 g       .data	00000000 _mtb_start
00001d88 g     F .text	0000007e OLED_Fill
000008e8  w    F .text	00000002 .hidden __aeabi_idiv0
00001bd4 g     F .text	0000008c OLED_WrCmd
00000960 g     F .text	0000002e .hidden __fixunssfsi
00000844  w    F .text	00000004 LPTMR0_IRQHandler
000032d8 g     F .text	0000000e strlen
000017ec g     F .text	00000048 send_Command
000027ec g     F .text	000000a8 uart_send1
00002bd0 g     F .text	00000022 uart_is_uartNo
00002e90 g     F .text	00000080 gpio_set
00002f10 g     F .text	00000054 gpio_reverse
00002da8 g     F .text	000000e8 gpio_init
1ffff01e g     O .bss	00000001 red_state
00001cb4 g     F .text	00000048 OLED_DLY_ms
00000844  w    F .text	00000004 CMP0_IRQHandler
00002c20 g     F .text	000000f0 tpm_timer_init
1ffff000 g     O .data	00000001 Control_Coltime
1ffff094 g     O .bss	00000001 Received_flag
00000844  w    F .text	00000004 DMA1_IRQHandler



Disassembly of section .text:

00000800 <Reset_Handler>:
Reset_Handler():
E:\BOBO_KDS\KL25_DS18_GPRS\Debug/../03_MCU/startup_MKL25Z4.S:117
    .align 2
    .globl   Reset_Handler
    .weak    Reset_Handler
    .type    Reset_Handler, %function
Reset_Handler:
    cpsid   i               /* 屏蔽中断 */
     800:	b672      	cpsid	i
E:\BOBO_KDS\KL25_DS18_GPRS\Debug/../03_MCU/startup_MKL25Z4.S:119
#ifndef __NO_SYSTEM_INIT
    bl SystemInit           /* 跳转到系统初始化函数，在system_MKL25Z4.c中 */
     802:	f002 fc57 	bl	30b4 <SystemInit>
E:\BOBO_KDS\KL25_DS18_GPRS\Debug/../03_MCU/startup_MKL25Z4.S:121
#endif
    cpsie   i               /* 解除屏蔽中断 */
     806:	b662      	cpsie	i
E:\BOBO_KDS\KL25_DS18_GPRS\Debug/../03_MCU/startup_MKL25Z4.S:127

/*     把数据从ROM复制到RAM中。需要在连接文件中定义如下的标志。
 *
 *      __etext: 代码段结束标志, 比如： begin of data sections to copy from.
 *      __data_start__/__data_end__: 数据需要复制到的RAM地址范围。边界必须4字节对齐  */
    ldr    r1, =__etext
     808:	4909      	ldr	r1, [pc, #36]	; (830 <Reset_Handler+0x30>)
E:\BOBO_KDS\KL25_DS18_GPRS\Debug/../03_MCU/startup_MKL25Z4.S:128
    ldr    r2, =__data_start__
     80a:	4a0a      	ldr	r2, [pc, #40]	; (834 <Reset_Handler+0x34>)
E:\BOBO_KDS\KL25_DS18_GPRS\Debug/../03_MCU/startup_MKL25Z4.S:129
    ldr    r3, =__data_end__
     80c:	4b0a      	ldr	r3, [pc, #40]	; (838 <Reset_Handler+0x38>)
E:\BOBO_KDS\KL25_DS18_GPRS\Debug/../03_MCU/startup_MKL25Z4.S:131

    subs    r3, r2
     80e:	1a9b      	subs	r3, r3, r2
E:\BOBO_KDS\KL25_DS18_GPRS\Debug/../03_MCU/startup_MKL25Z4.S:132
    ble     .LC0
     810:	dd03      	ble.n	81a <Reset_Handler+0x1a>
E:\BOBO_KDS\KL25_DS18_GPRS\Debug/../03_MCU/startup_MKL25Z4.S:135

.LC1:
    subs    r3, 4
     812:	3b04      	subs	r3, #4
E:\BOBO_KDS\KL25_DS18_GPRS\Debug/../03_MCU/startup_MKL25Z4.S:136
    ldr    r0, [r1,r3]
     814:	58c8      	ldr	r0, [r1, r3]
E:\BOBO_KDS\KL25_DS18_GPRS\Debug/../03_MCU/startup_MKL25Z4.S:137
    str    r0, [r2,r3]
     816:	50d0      	str	r0, [r2, r3]
E:\BOBO_KDS\KL25_DS18_GPRS\Debug/../03_MCU/startup_MKL25Z4.S:138
    bgt    .LC1
     818:	dcfb      	bgt.n	812 <Reset_Handler+0x12>
E:\BOBO_KDS\KL25_DS18_GPRS\Debug/../03_MCU/startup_MKL25Z4.S:150
 *
 *     清理BSS段需要在连接文件中定义如下的标志
 *      __bss_start__: bss段的起始标志，需要对其到4字节
 *      __bss_end__: bss段的结束标志. 需要对其到4字节
 */
    ldr r1, =__bss_start__
     81a:	4908      	ldr	r1, [pc, #32]	; (83c <Reset_Handler+0x3c>)
E:\BOBO_KDS\KL25_DS18_GPRS\Debug/../03_MCU/startup_MKL25Z4.S:151
    ldr r2, =__bss_end__
     81c:	4a08      	ldr	r2, [pc, #32]	; (840 <Reset_Handler+0x40>)
E:\BOBO_KDS\KL25_DS18_GPRS\Debug/../03_MCU/startup_MKL25Z4.S:153

    subs    r2, r1
     81e:	1a52      	subs	r2, r2, r1
E:\BOBO_KDS\KL25_DS18_GPRS\Debug/../03_MCU/startup_MKL25Z4.S:154
    ble .LC3
     820:	dd03      	ble.n	82a <Reset_Handler+0x2a>
E:\BOBO_KDS\KL25_DS18_GPRS\Debug/../03_MCU/startup_MKL25Z4.S:156

    movs    r0, 0
     822:	2000      	movs	r0, #0
E:\BOBO_KDS\KL25_DS18_GPRS\Debug/../03_MCU/startup_MKL25Z4.S:158
.LC2:
    str r0, [r1, r2]
     824:	5088      	str	r0, [r1, r2]
E:\BOBO_KDS\KL25_DS18_GPRS\Debug/../03_MCU/startup_MKL25Z4.S:159
    subs    r2, 4
     826:	3a04      	subs	r2, #4
E:\BOBO_KDS\KL25_DS18_GPRS\Debug/../03_MCU/startup_MKL25Z4.S:160
    bge .LC2
     828:	dafc      	bge.n	824 <Reset_Handler+0x24>
E:\BOBO_KDS\KL25_DS18_GPRS\Debug/../03_MCU/startup_MKL25Z4.S:166
.LC3:
#endif
#ifndef __START
#define __START main
#endif
    bl    __START
     82a:	f000 fd5b 	bl	12e4 <main>
     82e:	0000      	.short	0x0000
E:\BOBO_KDS\KL25_DS18_GPRS\Debug/../03_MCU/startup_MKL25Z4.S:127

/*     把数据从ROM复制到RAM中。需要在连接文件中定义如下的标志。
 *
 *      __etext: 代码段结束标志, 比如： begin of data sections to copy from.
 *      __data_start__/__data_end__: 数据需要复制到的RAM地址范围。边界必须4字节对齐  */
    ldr    r1, =__etext
     830:	00003d14 	.word	0x00003d14
E:\BOBO_KDS\KL25_DS18_GPRS\Debug/../03_MCU/startup_MKL25Z4.S:128
    ldr    r2, =__data_start__
     834:	1ffff000 	.word	0x1ffff000
E:\BOBO_KDS\KL25_DS18_GPRS\Debug/../03_MCU/startup_MKL25Z4.S:129
    ldr    r3, =__data_end__
     838:	1ffff01c 	.word	0x1ffff01c
E:\BOBO_KDS\KL25_DS18_GPRS\Debug/../03_MCU/startup_MKL25Z4.S:150
 *
 *     清理BSS段需要在连接文件中定义如下的标志
 *      __bss_start__: bss段的起始标志，需要对其到4字节
 *      __bss_end__: bss段的结束标志. 需要对其到4字节
 */
    ldr r1, =__bss_start__
     83c:	1ffff01c 	.word	0x1ffff01c
E:\BOBO_KDS\KL25_DS18_GPRS\Debug/../03_MCU/startup_MKL25Z4.S:151
    ldr r2, =__bss_end__
     840:	1ffff098 	.word	0x1ffff098

00000844 <ADC0_IRQHandler>:
I2C0_IRQHandler():
E:\BOBO_KDS\KL25_DS18_GPRS\Debug/../03_MCU/startup_MKL25Z4.S:175
    .align	1
    .thumb_func
    .weak DefaultISR
    .type DefaultISR, %function
DefaultISR:
    ldr	r0, =DefaultISR
     844:	4800      	ldr	r0, [pc, #0]	; (848 <ADC0_IRQHandler+0x4>)
E:\BOBO_KDS\KL25_DS18_GPRS\Debug/../03_MCU/startup_MKL25Z4.S:176
    bx r0
     846:	4700      	bx	r0
$d():
E:\BOBO_KDS\KL25_DS18_GPRS\Debug/../03_MCU/startup_MKL25Z4.S:175
    .align	1
    .thumb_func
    .weak DefaultISR
    .type DefaultISR, %function
DefaultISR:
    ldr	r0, =DefaultISR
     848:	00000845 	.word	0x00000845

0000084c <__aeabi_uidiv>:
__udivsi3():
     84c:	2900      	cmp	r1, #0
     84e:	d034      	beq.n	8ba <.udivsi3_skip_div0_test+0x6a>

00000850 <.udivsi3_skip_div0_test>:
     850:	2301      	movs	r3, #1
     852:	2200      	movs	r2, #0
     854:	b410      	push	{r4}
     856:	4288      	cmp	r0, r1
     858:	d32c      	bcc.n	8b4 <.udivsi3_skip_div0_test+0x64>
     85a:	2401      	movs	r4, #1
     85c:	0724      	lsls	r4, r4, #28
     85e:	42a1      	cmp	r1, r4
     860:	d204      	bcs.n	86c <.udivsi3_skip_div0_test+0x1c>
     862:	4281      	cmp	r1, r0
     864:	d202      	bcs.n	86c <.udivsi3_skip_div0_test+0x1c>
     866:	0109      	lsls	r1, r1, #4
     868:	011b      	lsls	r3, r3, #4
     86a:	e7f8      	b.n	85e <.udivsi3_skip_div0_test+0xe>
     86c:	00e4      	lsls	r4, r4, #3
     86e:	42a1      	cmp	r1, r4
     870:	d204      	bcs.n	87c <.udivsi3_skip_div0_test+0x2c>
     872:	4281      	cmp	r1, r0
     874:	d202      	bcs.n	87c <.udivsi3_skip_div0_test+0x2c>
     876:	0049      	lsls	r1, r1, #1
     878:	005b      	lsls	r3, r3, #1
     87a:	e7f8      	b.n	86e <.udivsi3_skip_div0_test+0x1e>
     87c:	4288      	cmp	r0, r1
     87e:	d301      	bcc.n	884 <.udivsi3_skip_div0_test+0x34>
     880:	1a40      	subs	r0, r0, r1
     882:	431a      	orrs	r2, r3
     884:	084c      	lsrs	r4, r1, #1
     886:	42a0      	cmp	r0, r4
     888:	d302      	bcc.n	890 <.udivsi3_skip_div0_test+0x40>
     88a:	1b00      	subs	r0, r0, r4
     88c:	085c      	lsrs	r4, r3, #1
     88e:	4322      	orrs	r2, r4
     890:	088c      	lsrs	r4, r1, #2
     892:	42a0      	cmp	r0, r4
     894:	d302      	bcc.n	89c <.udivsi3_skip_div0_test+0x4c>
     896:	1b00      	subs	r0, r0, r4
     898:	089c      	lsrs	r4, r3, #2
     89a:	4322      	orrs	r2, r4
     89c:	08cc      	lsrs	r4, r1, #3
     89e:	42a0      	cmp	r0, r4
     8a0:	d302      	bcc.n	8a8 <.udivsi3_skip_div0_test+0x58>
     8a2:	1b00      	subs	r0, r0, r4
     8a4:	08dc      	lsrs	r4, r3, #3
     8a6:	4322      	orrs	r2, r4
     8a8:	2800      	cmp	r0, #0
     8aa:	d003      	beq.n	8b4 <.udivsi3_skip_div0_test+0x64>
     8ac:	091b      	lsrs	r3, r3, #4
     8ae:	d001      	beq.n	8b4 <.udivsi3_skip_div0_test+0x64>
     8b0:	0909      	lsrs	r1, r1, #4
     8b2:	e7e3      	b.n	87c <.udivsi3_skip_div0_test+0x2c>
     8b4:	1c10      	adds	r0, r2, #0
     8b6:	bc10      	pop	{r4}
     8b8:	4770      	bx	lr
     8ba:	2800      	cmp	r0, #0
     8bc:	d001      	beq.n	8c2 <.udivsi3_skip_div0_test+0x72>
     8be:	2000      	movs	r0, #0
     8c0:	43c0      	mvns	r0, r0
     8c2:	b407      	push	{r0, r1, r2}
     8c4:	4802      	ldr	r0, [pc, #8]	; (8d0 <.udivsi3_skip_div0_test+0x80>)
     8c6:	a102      	add	r1, pc, #8	; (adr r1, 8d0 <.udivsi3_skip_div0_test+0x80>)
     8c8:	1840      	adds	r0, r0, r1
     8ca:	9002      	str	r0, [sp, #8]
     8cc:	bd03      	pop	{r0, r1, pc}
     8ce:	46c0      	nop			; (mov r8, r8)
     8d0:	00000019 	.word	0x00000019

000008d4 <__aeabi_uidivmod>:
__aeabi_uidivmod():
     8d4:	2900      	cmp	r1, #0
     8d6:	d0f0      	beq.n	8ba <.udivsi3_skip_div0_test+0x6a>
     8d8:	b503      	push	{r0, r1, lr}
     8da:	f7ff ffb9 	bl	850 <.udivsi3_skip_div0_test>
     8de:	bc0e      	pop	{r1, r2, r3}
     8e0:	4342      	muls	r2, r0
     8e2:	1a89      	subs	r1, r1, r2
     8e4:	4718      	bx	r3
     8e6:	46c0      	nop			; (mov r8, r8)

000008e8 <__aeabi_idiv0>:
__aeabi_ldiv0():
     8e8:	4770      	bx	lr
     8ea:	46c0      	nop			; (mov r8, r8)

000008ec <__aeabi_cfrcmple>:
__aeabi_cfrcmple():
     8ec:	4684      	mov	ip, r0
     8ee:	1c08      	adds	r0, r1, #0
     8f0:	4661      	mov	r1, ip
     8f2:	e7ff      	b.n	8f4 <__aeabi_cfcmpeq>

000008f4 <__aeabi_cfcmpeq>:
     8f4:	b51f      	push	{r0, r1, r2, r3, r4, lr}
     8f6:	f000 f8bd 	bl	a74 <__lesf2>
     8fa:	2800      	cmp	r0, #0
     8fc:	d401      	bmi.n	902 <__aeabi_cfcmpeq+0xe>
     8fe:	2100      	movs	r1, #0
     900:	42c8      	cmn	r0, r1
     902:	bd1f      	pop	{r0, r1, r2, r3, r4, pc}

00000904 <__aeabi_fcmpeq>:
__aeabi_fcmpeq():
     904:	b510      	push	{r4, lr}
     906:	f000 f843 	bl	990 <__eqsf2>
     90a:	4240      	negs	r0, r0
     90c:	3001      	adds	r0, #1
     90e:	bd10      	pop	{r4, pc}

00000910 <__aeabi_fcmplt>:
__aeabi_fcmplt():
     910:	b510      	push	{r4, lr}
     912:	f000 f8af 	bl	a74 <__lesf2>
     916:	2800      	cmp	r0, #0
     918:	db01      	blt.n	91e <__aeabi_fcmplt+0xe>
     91a:	2000      	movs	r0, #0
     91c:	bd10      	pop	{r4, pc}
     91e:	2001      	movs	r0, #1
     920:	bd10      	pop	{r4, pc}
     922:	46c0      	nop			; (mov r8, r8)

00000924 <__aeabi_fcmple>:
__aeabi_fcmple():
     924:	b510      	push	{r4, lr}
     926:	f000 f8a5 	bl	a74 <__lesf2>
     92a:	2800      	cmp	r0, #0
     92c:	dd01      	ble.n	932 <__aeabi_fcmple+0xe>
     92e:	2000      	movs	r0, #0
     930:	bd10      	pop	{r4, pc}
     932:	2001      	movs	r0, #1
     934:	bd10      	pop	{r4, pc}
     936:	46c0      	nop			; (mov r8, r8)

00000938 <__aeabi_fcmpgt>:
__aeabi_fcmpgt():
     938:	b510      	push	{r4, lr}
     93a:	f000 f853 	bl	9e4 <__gesf2>
     93e:	2800      	cmp	r0, #0
     940:	dc01      	bgt.n	946 <__aeabi_fcmpgt+0xe>
     942:	2000      	movs	r0, #0
     944:	bd10      	pop	{r4, pc}
     946:	2001      	movs	r0, #1
     948:	bd10      	pop	{r4, pc}
     94a:	46c0      	nop			; (mov r8, r8)

0000094c <__aeabi_fcmpge>:
__aeabi_fcmpge():
     94c:	b510      	push	{r4, lr}
     94e:	f000 f849 	bl	9e4 <__gesf2>
     952:	2800      	cmp	r0, #0
     954:	da01      	bge.n	95a <__aeabi_fcmpge+0xe>
     956:	2000      	movs	r0, #0
     958:	bd10      	pop	{r4, pc}
     95a:	2001      	movs	r0, #1
     95c:	bd10      	pop	{r4, pc}
     95e:	46c0      	nop			; (mov r8, r8)

00000960 <__aeabi_f2uiz>:
__aeabi_f2uiz():
     960:	219e      	movs	r1, #158	; 0x9e
     962:	b510      	push	{r4, lr}
     964:	05c9      	lsls	r1, r1, #23
     966:	1c04      	adds	r4, r0, #0
     968:	f7ff fff0 	bl	94c <__aeabi_fcmpge>
     96c:	2800      	cmp	r0, #0
     96e:	d103      	bne.n	978 <__aeabi_f2uiz+0x18>
     970:	1c20      	adds	r0, r4, #0
     972:	f000 fb6b 	bl	104c <__aeabi_f2iz>
     976:	bd10      	pop	{r4, pc}
     978:	219e      	movs	r1, #158	; 0x9e
     97a:	05c9      	lsls	r1, r1, #23
     97c:	1c20      	adds	r0, r4, #0
     97e:	f000 f9ef 	bl	d60 <__aeabi_fsub>
     982:	f000 fb63 	bl	104c <__aeabi_f2iz>
     986:	2380      	movs	r3, #128	; 0x80
     988:	061b      	lsls	r3, r3, #24
     98a:	18c0      	adds	r0, r0, r3
     98c:	e7f3      	b.n	976 <__aeabi_f2uiz+0x16>
     98e:	46c0      	nop			; (mov r8, r8)

00000990 <__eqsf2>:
__nesf2():
     990:	024a      	lsls	r2, r1, #9
     992:	0243      	lsls	r3, r0, #9
     994:	b570      	push	{r4, r5, r6, lr}
     996:	0a5c      	lsrs	r4, r3, #9
     998:	0a55      	lsrs	r5, r2, #9
     99a:	0043      	lsls	r3, r0, #1
     99c:	004a      	lsls	r2, r1, #1
     99e:	0e1b      	lsrs	r3, r3, #24
     9a0:	0fc6      	lsrs	r6, r0, #31
     9a2:	0e12      	lsrs	r2, r2, #24
     9a4:	0fc9      	lsrs	r1, r1, #31
     9a6:	2bff      	cmp	r3, #255	; 0xff
     9a8:	d005      	beq.n	9b6 <__eqsf2+0x26>
     9aa:	2aff      	cmp	r2, #255	; 0xff
     9ac:	d008      	beq.n	9c0 <__eqsf2+0x30>
     9ae:	2001      	movs	r0, #1
     9b0:	4293      	cmp	r3, r2
     9b2:	d00b      	beq.n	9cc <__eqsf2+0x3c>
     9b4:	bd70      	pop	{r4, r5, r6, pc}
     9b6:	2001      	movs	r0, #1
     9b8:	2c00      	cmp	r4, #0
     9ba:	d1fb      	bne.n	9b4 <__eqsf2+0x24>
     9bc:	2aff      	cmp	r2, #255	; 0xff
     9be:	d1f6      	bne.n	9ae <__eqsf2+0x1e>
     9c0:	2001      	movs	r0, #1
     9c2:	2d00      	cmp	r5, #0
     9c4:	d1f6      	bne.n	9b4 <__eqsf2+0x24>
     9c6:	2001      	movs	r0, #1
     9c8:	4293      	cmp	r3, r2
     9ca:	d1f3      	bne.n	9b4 <__eqsf2+0x24>
     9cc:	42ac      	cmp	r4, r5
     9ce:	d1f1      	bne.n	9b4 <__eqsf2+0x24>
     9d0:	428e      	cmp	r6, r1
     9d2:	d005      	beq.n	9e0 <__eqsf2+0x50>
     9d4:	2b00      	cmp	r3, #0
     9d6:	d1ed      	bne.n	9b4 <__eqsf2+0x24>
     9d8:	1c20      	adds	r0, r4, #0
     9da:	1e44      	subs	r4, r0, #1
     9dc:	41a0      	sbcs	r0, r4
     9de:	e7e9      	b.n	9b4 <__eqsf2+0x24>
     9e0:	2000      	movs	r0, #0
     9e2:	e7e7      	b.n	9b4 <__eqsf2+0x24>

000009e4 <__gesf2>:
__gtsf2():
     9e4:	024a      	lsls	r2, r1, #9
     9e6:	0243      	lsls	r3, r0, #9
     9e8:	b5f0      	push	{r4, r5, r6, r7, lr}
     9ea:	0a5c      	lsrs	r4, r3, #9
     9ec:	0a55      	lsrs	r5, r2, #9
     9ee:	0043      	lsls	r3, r0, #1
     9f0:	004a      	lsls	r2, r1, #1
     9f2:	0e1b      	lsrs	r3, r3, #24
     9f4:	0fc6      	lsrs	r6, r0, #31
     9f6:	0e12      	lsrs	r2, r2, #24
     9f8:	0fc9      	lsrs	r1, r1, #31
     9fa:	2bff      	cmp	r3, #255	; 0xff
     9fc:	d031      	beq.n	a62 <__gesf2+0x7e>
     9fe:	2aff      	cmp	r2, #255	; 0xff
     a00:	d034      	beq.n	a6c <__gesf2+0x88>
     a02:	2b00      	cmp	r3, #0
     a04:	d116      	bne.n	a34 <__gesf2+0x50>
     a06:	4260      	negs	r0, r4
     a08:	4160      	adcs	r0, r4
     a0a:	4684      	mov	ip, r0
     a0c:	2a00      	cmp	r2, #0
     a0e:	d014      	beq.n	a3a <__gesf2+0x56>
     a10:	2800      	cmp	r0, #0
     a12:	d120      	bne.n	a56 <__gesf2+0x72>
     a14:	428e      	cmp	r6, r1
     a16:	d117      	bne.n	a48 <__gesf2+0x64>
     a18:	4293      	cmp	r3, r2
     a1a:	dc15      	bgt.n	a48 <__gesf2+0x64>
     a1c:	db04      	blt.n	a28 <__gesf2+0x44>
     a1e:	42ac      	cmp	r4, r5
     a20:	d812      	bhi.n	a48 <__gesf2+0x64>
     a22:	2000      	movs	r0, #0
     a24:	42ac      	cmp	r4, r5
     a26:	d212      	bcs.n	a4e <__gesf2+0x6a>
     a28:	4270      	negs	r0, r6
     a2a:	4170      	adcs	r0, r6
     a2c:	4240      	negs	r0, r0
     a2e:	2301      	movs	r3, #1
     a30:	4318      	orrs	r0, r3
     a32:	e00c      	b.n	a4e <__gesf2+0x6a>
     a34:	2a00      	cmp	r2, #0
     a36:	d1ed      	bne.n	a14 <__gesf2+0x30>
     a38:	4694      	mov	ip, r2
     a3a:	426f      	negs	r7, r5
     a3c:	416f      	adcs	r7, r5
     a3e:	4660      	mov	r0, ip
     a40:	2800      	cmp	r0, #0
     a42:	d105      	bne.n	a50 <__gesf2+0x6c>
     a44:	2f00      	cmp	r7, #0
     a46:	d0e5      	beq.n	a14 <__gesf2+0x30>
     a48:	4270      	negs	r0, r6
     a4a:	2301      	movs	r3, #1
     a4c:	4318      	orrs	r0, r3
     a4e:	bdf0      	pop	{r4, r5, r6, r7, pc}
     a50:	2000      	movs	r0, #0
     a52:	2f00      	cmp	r7, #0
     a54:	d1fb      	bne.n	a4e <__gesf2+0x6a>
     a56:	4248      	negs	r0, r1
     a58:	4148      	adcs	r0, r1
     a5a:	4240      	negs	r0, r0
     a5c:	2301      	movs	r3, #1
     a5e:	4318      	orrs	r0, r3
     a60:	e7f5      	b.n	a4e <__gesf2+0x6a>
     a62:	2c00      	cmp	r4, #0
     a64:	d0cb      	beq.n	9fe <__gesf2+0x1a>
     a66:	2002      	movs	r0, #2
     a68:	4240      	negs	r0, r0
     a6a:	e7f0      	b.n	a4e <__gesf2+0x6a>
     a6c:	2d00      	cmp	r5, #0
     a6e:	d0c8      	beq.n	a02 <__gesf2+0x1e>
     a70:	e7f9      	b.n	a66 <__gesf2+0x82>
     a72:	46c0      	nop			; (mov r8, r8)

00000a74 <__lesf2>:
__lesf2():
     a74:	024a      	lsls	r2, r1, #9
     a76:	0243      	lsls	r3, r0, #9
     a78:	b5f0      	push	{r4, r5, r6, r7, lr}
     a7a:	0a5c      	lsrs	r4, r3, #9
     a7c:	0a55      	lsrs	r5, r2, #9
     a7e:	0043      	lsls	r3, r0, #1
     a80:	004a      	lsls	r2, r1, #1
     a82:	0e1b      	lsrs	r3, r3, #24
     a84:	0fc6      	lsrs	r6, r0, #31
     a86:	0e12      	lsrs	r2, r2, #24
     a88:	0fc9      	lsrs	r1, r1, #31
     a8a:	2bff      	cmp	r3, #255	; 0xff
     a8c:	d027      	beq.n	ade <__lesf2+0x6a>
     a8e:	2aff      	cmp	r2, #255	; 0xff
     a90:	d029      	beq.n	ae6 <__lesf2+0x72>
     a92:	2b00      	cmp	r3, #0
     a94:	d010      	beq.n	ab8 <__lesf2+0x44>
     a96:	2a00      	cmp	r2, #0
     a98:	d115      	bne.n	ac6 <__lesf2+0x52>
     a9a:	4694      	mov	ip, r2
     a9c:	426f      	negs	r7, r5
     a9e:	416f      	adcs	r7, r5
     aa0:	4660      	mov	r0, ip
     aa2:	2800      	cmp	r0, #0
     aa4:	d015      	beq.n	ad2 <__lesf2+0x5e>
     aa6:	2000      	movs	r0, #0
     aa8:	2f00      	cmp	r7, #0
     aaa:	d104      	bne.n	ab6 <__lesf2+0x42>
     aac:	4248      	negs	r0, r1
     aae:	4148      	adcs	r0, r1
     ab0:	4240      	negs	r0, r0
     ab2:	2301      	movs	r3, #1
     ab4:	4318      	orrs	r0, r3
     ab6:	bdf0      	pop	{r4, r5, r6, r7, pc}
     ab8:	4260      	negs	r0, r4
     aba:	4160      	adcs	r0, r4
     abc:	4684      	mov	ip, r0
     abe:	2a00      	cmp	r2, #0
     ac0:	d0ec      	beq.n	a9c <__lesf2+0x28>
     ac2:	2800      	cmp	r0, #0
     ac4:	d1f2      	bne.n	aac <__lesf2+0x38>
     ac6:	428e      	cmp	r6, r1
     ac8:	d011      	beq.n	aee <__lesf2+0x7a>
     aca:	4270      	negs	r0, r6
     acc:	2301      	movs	r3, #1
     ace:	4318      	orrs	r0, r3
     ad0:	e7f1      	b.n	ab6 <__lesf2+0x42>
     ad2:	2f00      	cmp	r7, #0
     ad4:	d0f7      	beq.n	ac6 <__lesf2+0x52>
     ad6:	4270      	negs	r0, r6
     ad8:	2301      	movs	r3, #1
     ada:	4318      	orrs	r0, r3
     adc:	e7eb      	b.n	ab6 <__lesf2+0x42>
     ade:	2002      	movs	r0, #2
     ae0:	2c00      	cmp	r4, #0
     ae2:	d1e8      	bne.n	ab6 <__lesf2+0x42>
     ae4:	e7d3      	b.n	a8e <__lesf2+0x1a>
     ae6:	2002      	movs	r0, #2
     ae8:	2d00      	cmp	r5, #0
     aea:	d1e4      	bne.n	ab6 <__lesf2+0x42>
     aec:	e7d1      	b.n	a92 <__lesf2+0x1e>
     aee:	4293      	cmp	r3, r2
     af0:	dceb      	bgt.n	aca <__lesf2+0x56>
     af2:	db04      	blt.n	afe <__lesf2+0x8a>
     af4:	42ac      	cmp	r4, r5
     af6:	d8e8      	bhi.n	aca <__lesf2+0x56>
     af8:	2000      	movs	r0, #0
     afa:	42ac      	cmp	r4, r5
     afc:	d2db      	bcs.n	ab6 <__lesf2+0x42>
     afe:	4270      	negs	r0, r6
     b00:	4170      	adcs	r0, r6
     b02:	4240      	negs	r0, r0
     b04:	2301      	movs	r3, #1
     b06:	4318      	orrs	r0, r3
     b08:	e7d5      	b.n	ab6 <__lesf2+0x42>
     b0a:	46c0      	nop			; (mov r8, r8)

00000b0c <__aeabi_fmul>:
__aeabi_fmul():
     b0c:	b5f0      	push	{r4, r5, r6, r7, lr}
     b0e:	465f      	mov	r7, fp
     b10:	4656      	mov	r6, sl
     b12:	464d      	mov	r5, r9
     b14:	4644      	mov	r4, r8
     b16:	b4f0      	push	{r4, r5, r6, r7}
     b18:	0244      	lsls	r4, r0, #9
     b1a:	0046      	lsls	r6, r0, #1
     b1c:	b083      	sub	sp, #12
     b1e:	1c0f      	adds	r7, r1, #0
     b20:	0a64      	lsrs	r4, r4, #9
     b22:	0e36      	lsrs	r6, r6, #24
     b24:	0fc5      	lsrs	r5, r0, #31
     b26:	2e00      	cmp	r6, #0
     b28:	d041      	beq.n	bae <__aeabi_fmul+0xa2>
     b2a:	2eff      	cmp	r6, #255	; 0xff
     b2c:	d022      	beq.n	b74 <__aeabi_fmul+0x68>
     b2e:	2380      	movs	r3, #128	; 0x80
     b30:	041b      	lsls	r3, r3, #16
     b32:	2000      	movs	r0, #0
     b34:	431c      	orrs	r4, r3
     b36:	00e4      	lsls	r4, r4, #3
     b38:	3e7f      	subs	r6, #127	; 0x7f
     b3a:	4682      	mov	sl, r0
     b3c:	4680      	mov	r8, r0
     b3e:	1c39      	adds	r1, r7, #0
     b40:	004b      	lsls	r3, r1, #1
     b42:	027f      	lsls	r7, r7, #9
     b44:	0fc9      	lsrs	r1, r1, #31
     b46:	0a7f      	lsrs	r7, r7, #9
     b48:	0e1b      	lsrs	r3, r3, #24
     b4a:	468b      	mov	fp, r1
     b4c:	d03b      	beq.n	bc6 <__aeabi_fmul+0xba>
     b4e:	2bff      	cmp	r3, #255	; 0xff
     b50:	d034      	beq.n	bbc <__aeabi_fmul+0xb0>
     b52:	2280      	movs	r2, #128	; 0x80
     b54:	0412      	lsls	r2, r2, #16
     b56:	4317      	orrs	r7, r2
     b58:	00ff      	lsls	r7, r7, #3
     b5a:	3b7f      	subs	r3, #127	; 0x7f
     b5c:	2100      	movs	r1, #0
     b5e:	465a      	mov	r2, fp
     b60:	406a      	eors	r2, r5
     b62:	9201      	str	r2, [sp, #4]
     b64:	4652      	mov	r2, sl
     b66:	430a      	orrs	r2, r1
     b68:	2a0f      	cmp	r2, #15
     b6a:	d863      	bhi.n	c34 <__aeabi_fmul+0x128>
     b6c:	487a      	ldr	r0, [pc, #488]	; (d58 <__aeabi_fmul+0x24c>)
     b6e:	0092      	lsls	r2, r2, #2
     b70:	5882      	ldr	r2, [r0, r2]
     b72:	4697      	mov	pc, r2
     b74:	2c00      	cmp	r4, #0
     b76:	d13f      	bne.n	bf8 <__aeabi_fmul+0xec>
     b78:	2208      	movs	r2, #8
     b7a:	2302      	movs	r3, #2
     b7c:	4692      	mov	sl, r2
     b7e:	4698      	mov	r8, r3
     b80:	e7dd      	b.n	b3e <__aeabi_fmul+0x32>
     b82:	9501      	str	r5, [sp, #4]
     b84:	4640      	mov	r0, r8
     b86:	2802      	cmp	r0, #2
     b88:	d12a      	bne.n	be0 <__aeabi_fmul+0xd4>
     b8a:	9a01      	ldr	r2, [sp, #4]
     b8c:	2501      	movs	r5, #1
     b8e:	4015      	ands	r5, r2
     b90:	23ff      	movs	r3, #255	; 0xff
     b92:	2400      	movs	r4, #0
     b94:	0264      	lsls	r4, r4, #9
     b96:	05db      	lsls	r3, r3, #23
     b98:	0a60      	lsrs	r0, r4, #9
     b9a:	07ed      	lsls	r5, r5, #31
     b9c:	4318      	orrs	r0, r3
     b9e:	4328      	orrs	r0, r5
     ba0:	b003      	add	sp, #12
     ba2:	bc3c      	pop	{r2, r3, r4, r5}
     ba4:	4690      	mov	r8, r2
     ba6:	4699      	mov	r9, r3
     ba8:	46a2      	mov	sl, r4
     baa:	46ab      	mov	fp, r5
     bac:	bdf0      	pop	{r4, r5, r6, r7, pc}
     bae:	2c00      	cmp	r4, #0
     bb0:	d127      	bne.n	c02 <__aeabi_fmul+0xf6>
     bb2:	2004      	movs	r0, #4
     bb4:	2201      	movs	r2, #1
     bb6:	4682      	mov	sl, r0
     bb8:	4690      	mov	r8, r2
     bba:	e7c0      	b.n	b3e <__aeabi_fmul+0x32>
     bbc:	1c39      	adds	r1, r7, #0
     bbe:	1e4a      	subs	r2, r1, #1
     bc0:	4191      	sbcs	r1, r2
     bc2:	3102      	adds	r1, #2
     bc4:	e7cb      	b.n	b5e <__aeabi_fmul+0x52>
     bc6:	2101      	movs	r1, #1
     bc8:	2f00      	cmp	r7, #0
     bca:	d0c8      	beq.n	b5e <__aeabi_fmul+0x52>
     bcc:	1c38      	adds	r0, r7, #0
     bce:	f000 faad 	bl	112c <__clzsi2>
     bd2:	1f43      	subs	r3, r0, #5
     bd4:	409f      	lsls	r7, r3
     bd6:	2376      	movs	r3, #118	; 0x76
     bd8:	425b      	negs	r3, r3
     bda:	1a1b      	subs	r3, r3, r0
     bdc:	2100      	movs	r1, #0
     bde:	e7be      	b.n	b5e <__aeabi_fmul+0x52>
     be0:	2803      	cmp	r0, #3
     be2:	d100      	bne.n	be6 <__aeabi_fmul+0xda>
     be4:	e0ae      	b.n	d44 <__aeabi_fmul+0x238>
     be6:	2801      	cmp	r0, #1
     be8:	d14f      	bne.n	c8a <__aeabi_fmul+0x17e>
     bea:	9801      	ldr	r0, [sp, #4]
     bec:	4642      	mov	r2, r8
     bee:	4010      	ands	r0, r2
     bf0:	b2c5      	uxtb	r5, r0
     bf2:	2300      	movs	r3, #0
     bf4:	2400      	movs	r4, #0
     bf6:	e7cd      	b.n	b94 <__aeabi_fmul+0x88>
     bf8:	230c      	movs	r3, #12
     bfa:	2003      	movs	r0, #3
     bfc:	469a      	mov	sl, r3
     bfe:	4680      	mov	r8, r0
     c00:	e79d      	b.n	b3e <__aeabi_fmul+0x32>
     c02:	1c20      	adds	r0, r4, #0
     c04:	f000 fa92 	bl	112c <__clzsi2>
     c08:	2676      	movs	r6, #118	; 0x76
     c0a:	1f43      	subs	r3, r0, #5
     c0c:	409c      	lsls	r4, r3
     c0e:	4276      	negs	r6, r6
     c10:	2300      	movs	r3, #0
     c12:	1a36      	subs	r6, r6, r0
     c14:	469a      	mov	sl, r3
     c16:	4698      	mov	r8, r3
     c18:	e791      	b.n	b3e <__aeabi_fmul+0x32>
     c1a:	2480      	movs	r4, #128	; 0x80
     c1c:	2500      	movs	r5, #0
     c1e:	03e4      	lsls	r4, r4, #15
     c20:	23ff      	movs	r3, #255	; 0xff
     c22:	e7b7      	b.n	b94 <__aeabi_fmul+0x88>
     c24:	465b      	mov	r3, fp
     c26:	1c3c      	adds	r4, r7, #0
     c28:	9301      	str	r3, [sp, #4]
     c2a:	4688      	mov	r8, r1
     c2c:	e7aa      	b.n	b84 <__aeabi_fmul+0x78>
     c2e:	1c3c      	adds	r4, r7, #0
     c30:	4688      	mov	r8, r1
     c32:	e7a7      	b.n	b84 <__aeabi_fmul+0x78>
     c34:	0c25      	lsrs	r5, r4, #16
     c36:	0424      	lsls	r4, r4, #16
     c38:	0c3a      	lsrs	r2, r7, #16
     c3a:	0c24      	lsrs	r4, r4, #16
     c3c:	043f      	lsls	r7, r7, #16
     c3e:	18f6      	adds	r6, r6, r3
     c40:	0c3f      	lsrs	r7, r7, #16
     c42:	1c21      	adds	r1, r4, #0
     c44:	1c23      	adds	r3, r4, #0
     c46:	4379      	muls	r1, r7
     c48:	4353      	muls	r3, r2
     c4a:	436f      	muls	r7, r5
     c4c:	4355      	muls	r5, r2
     c4e:	18fb      	adds	r3, r7, r3
     c50:	0c0a      	lsrs	r2, r1, #16
     c52:	189b      	adds	r3, r3, r2
     c54:	46b1      	mov	r9, r6
     c56:	429f      	cmp	r7, r3
     c58:	d902      	bls.n	c60 <__aeabi_fmul+0x154>
     c5a:	2280      	movs	r2, #128	; 0x80
     c5c:	0252      	lsls	r2, r2, #9
     c5e:	18ad      	adds	r5, r5, r2
     c60:	0409      	lsls	r1, r1, #16
     c62:	041a      	lsls	r2, r3, #16
     c64:	0c09      	lsrs	r1, r1, #16
     c66:	1852      	adds	r2, r2, r1
     c68:	0194      	lsls	r4, r2, #6
     c6a:	0c1b      	lsrs	r3, r3, #16
     c6c:	1e61      	subs	r1, r4, #1
     c6e:	418c      	sbcs	r4, r1
     c70:	0e92      	lsrs	r2, r2, #26
     c72:	18ed      	adds	r5, r5, r3
     c74:	4314      	orrs	r4, r2
     c76:	01ad      	lsls	r5, r5, #6
     c78:	432c      	orrs	r4, r5
     c7a:	0123      	lsls	r3, r4, #4
     c7c:	d505      	bpl.n	c8a <__aeabi_fmul+0x17e>
     c7e:	2201      	movs	r2, #1
     c80:	0863      	lsrs	r3, r4, #1
     c82:	2001      	movs	r0, #1
     c84:	4014      	ands	r4, r2
     c86:	4481      	add	r9, r0
     c88:	431c      	orrs	r4, r3
     c8a:	464b      	mov	r3, r9
     c8c:	337f      	adds	r3, #127	; 0x7f
     c8e:	2b00      	cmp	r3, #0
     c90:	dd2d      	ble.n	cee <__aeabi_fmul+0x1e2>
     c92:	0760      	lsls	r0, r4, #29
     c94:	d004      	beq.n	ca0 <__aeabi_fmul+0x194>
     c96:	220f      	movs	r2, #15
     c98:	4022      	ands	r2, r4
     c9a:	2a04      	cmp	r2, #4
     c9c:	d000      	beq.n	ca0 <__aeabi_fmul+0x194>
     c9e:	3404      	adds	r4, #4
     ca0:	0122      	lsls	r2, r4, #4
     ca2:	d503      	bpl.n	cac <__aeabi_fmul+0x1a0>
     ca4:	4b2d      	ldr	r3, [pc, #180]	; (d5c <__aeabi_fmul+0x250>)
     ca6:	401c      	ands	r4, r3
     ca8:	464b      	mov	r3, r9
     caa:	3380      	adds	r3, #128	; 0x80
     cac:	2bfe      	cmp	r3, #254	; 0xfe
     cae:	dd17      	ble.n	ce0 <__aeabi_fmul+0x1d4>
     cb0:	9b01      	ldr	r3, [sp, #4]
     cb2:	2501      	movs	r5, #1
     cb4:	401d      	ands	r5, r3
     cb6:	2400      	movs	r4, #0
     cb8:	23ff      	movs	r3, #255	; 0xff
     cba:	e76b      	b.n	b94 <__aeabi_fmul+0x88>
     cbc:	2080      	movs	r0, #128	; 0x80
     cbe:	03c0      	lsls	r0, r0, #15
     cc0:	4204      	tst	r4, r0
     cc2:	d008      	beq.n	cd6 <__aeabi_fmul+0x1ca>
     cc4:	4207      	tst	r7, r0
     cc6:	d106      	bne.n	cd6 <__aeabi_fmul+0x1ca>
     cc8:	1c04      	adds	r4, r0, #0
     cca:	433c      	orrs	r4, r7
     ccc:	0264      	lsls	r4, r4, #9
     cce:	0a64      	lsrs	r4, r4, #9
     cd0:	465d      	mov	r5, fp
     cd2:	23ff      	movs	r3, #255	; 0xff
     cd4:	e75e      	b.n	b94 <__aeabi_fmul+0x88>
     cd6:	4304      	orrs	r4, r0
     cd8:	0264      	lsls	r4, r4, #9
     cda:	0a64      	lsrs	r4, r4, #9
     cdc:	23ff      	movs	r3, #255	; 0xff
     cde:	e759      	b.n	b94 <__aeabi_fmul+0x88>
     ce0:	9801      	ldr	r0, [sp, #4]
     ce2:	01a4      	lsls	r4, r4, #6
     ce4:	2501      	movs	r5, #1
     ce6:	0a64      	lsrs	r4, r4, #9
     ce8:	b2db      	uxtb	r3, r3
     cea:	4005      	ands	r5, r0
     cec:	e752      	b.n	b94 <__aeabi_fmul+0x88>
     cee:	237e      	movs	r3, #126	; 0x7e
     cf0:	425b      	negs	r3, r3
     cf2:	464a      	mov	r2, r9
     cf4:	1a9b      	subs	r3, r3, r2
     cf6:	2b1b      	cmp	r3, #27
     cf8:	dd05      	ble.n	d06 <__aeabi_fmul+0x1fa>
     cfa:	9b01      	ldr	r3, [sp, #4]
     cfc:	2501      	movs	r5, #1
     cfe:	401d      	ands	r5, r3
     d00:	2400      	movs	r4, #0
     d02:	2300      	movs	r3, #0
     d04:	e746      	b.n	b94 <__aeabi_fmul+0x88>
     d06:	1c22      	adds	r2, r4, #0
     d08:	40da      	lsrs	r2, r3
     d0a:	464b      	mov	r3, r9
     d0c:	339e      	adds	r3, #158	; 0x9e
     d0e:	409c      	lsls	r4, r3
     d10:	1c23      	adds	r3, r4, #0
     d12:	1e5c      	subs	r4, r3, #1
     d14:	41a3      	sbcs	r3, r4
     d16:	4313      	orrs	r3, r2
     d18:	0758      	lsls	r0, r3, #29
     d1a:	d004      	beq.n	d26 <__aeabi_fmul+0x21a>
     d1c:	220f      	movs	r2, #15
     d1e:	401a      	ands	r2, r3
     d20:	2a04      	cmp	r2, #4
     d22:	d000      	beq.n	d26 <__aeabi_fmul+0x21a>
     d24:	3304      	adds	r3, #4
     d26:	015a      	lsls	r2, r3, #5
     d28:	d505      	bpl.n	d36 <__aeabi_fmul+0x22a>
     d2a:	9b01      	ldr	r3, [sp, #4]
     d2c:	2501      	movs	r5, #1
     d2e:	401d      	ands	r5, r3
     d30:	2400      	movs	r4, #0
     d32:	2301      	movs	r3, #1
     d34:	e72e      	b.n	b94 <__aeabi_fmul+0x88>
     d36:	9801      	ldr	r0, [sp, #4]
     d38:	019c      	lsls	r4, r3, #6
     d3a:	2501      	movs	r5, #1
     d3c:	0a64      	lsrs	r4, r4, #9
     d3e:	4005      	ands	r5, r0
     d40:	2300      	movs	r3, #0
     d42:	e727      	b.n	b94 <__aeabi_fmul+0x88>
     d44:	2780      	movs	r7, #128	; 0x80
     d46:	03ff      	lsls	r7, r7, #15
     d48:	9b01      	ldr	r3, [sp, #4]
     d4a:	433c      	orrs	r4, r7
     d4c:	0264      	lsls	r4, r4, #9
     d4e:	2501      	movs	r5, #1
     d50:	401d      	ands	r5, r3
     d52:	0a64      	lsrs	r4, r4, #9
     d54:	23ff      	movs	r3, #255	; 0xff
     d56:	e71d      	b.n	b94 <__aeabi_fmul+0x88>
     d58:	0000348c 	.word	0x0000348c
     d5c:	f7ffffff 	.word	0xf7ffffff

00000d60 <__aeabi_fsub>:
__aeabi_fsub():
     d60:	b5f8      	push	{r3, r4, r5, r6, r7, lr}
     d62:	0fc2      	lsrs	r2, r0, #31
     d64:	0243      	lsls	r3, r0, #9
     d66:	0044      	lsls	r4, r0, #1
     d68:	024d      	lsls	r5, r1, #9
     d6a:	0048      	lsls	r0, r1, #1
     d6c:	0e24      	lsrs	r4, r4, #24
     d6e:	1c16      	adds	r6, r2, #0
     d70:	099b      	lsrs	r3, r3, #6
     d72:	0e00      	lsrs	r0, r0, #24
     d74:	0fc9      	lsrs	r1, r1, #31
     d76:	09ad      	lsrs	r5, r5, #6
     d78:	28ff      	cmp	r0, #255	; 0xff
     d7a:	d100      	bne.n	d7e <__aeabi_fsub+0x1e>
     d7c:	e083      	b.n	e86 <__aeabi_fsub+0x126>
     d7e:	2701      	movs	r7, #1
     d80:	4079      	eors	r1, r7
     d82:	428a      	cmp	r2, r1
     d84:	d05c      	beq.n	e40 <__aeabi_fsub+0xe0>
     d86:	1a22      	subs	r2, r4, r0
     d88:	2a00      	cmp	r2, #0
     d8a:	dc00      	bgt.n	d8e <__aeabi_fsub+0x2e>
     d8c:	e08e      	b.n	eac <__aeabi_fsub+0x14c>
     d8e:	2800      	cmp	r0, #0
     d90:	d11e      	bne.n	dd0 <__aeabi_fsub+0x70>
     d92:	2d00      	cmp	r5, #0
     d94:	d000      	beq.n	d98 <__aeabi_fsub+0x38>
     d96:	e07a      	b.n	e8e <__aeabi_fsub+0x12e>
     d98:	0758      	lsls	r0, r3, #29
     d9a:	d004      	beq.n	da6 <__aeabi_fsub+0x46>
     d9c:	220f      	movs	r2, #15
     d9e:	401a      	ands	r2, r3
     da0:	2a04      	cmp	r2, #4
     da2:	d000      	beq.n	da6 <__aeabi_fsub+0x46>
     da4:	3304      	adds	r3, #4
     da6:	2180      	movs	r1, #128	; 0x80
     da8:	04c9      	lsls	r1, r1, #19
     daa:	2201      	movs	r2, #1
     dac:	4019      	ands	r1, r3
     dae:	4032      	ands	r2, r6
     db0:	2900      	cmp	r1, #0
     db2:	d03a      	beq.n	e2a <__aeabi_fsub+0xca>
     db4:	3401      	adds	r4, #1
     db6:	2cff      	cmp	r4, #255	; 0xff
     db8:	d100      	bne.n	dbc <__aeabi_fsub+0x5c>
     dba:	e083      	b.n	ec4 <__aeabi_fsub+0x164>
     dbc:	019b      	lsls	r3, r3, #6
     dbe:	0a5b      	lsrs	r3, r3, #9
     dc0:	025b      	lsls	r3, r3, #9
     dc2:	b2e4      	uxtb	r4, r4
     dc4:	05e4      	lsls	r4, r4, #23
     dc6:	0a58      	lsrs	r0, r3, #9
     dc8:	07d2      	lsls	r2, r2, #31
     dca:	4320      	orrs	r0, r4
     dcc:	4310      	orrs	r0, r2
     dce:	bdf8      	pop	{r3, r4, r5, r6, r7, pc}
     dd0:	2cff      	cmp	r4, #255	; 0xff
     dd2:	d0e1      	beq.n	d98 <__aeabi_fsub+0x38>
     dd4:	2180      	movs	r1, #128	; 0x80
     dd6:	04c9      	lsls	r1, r1, #19
     dd8:	430d      	orrs	r5, r1
     dda:	2a1b      	cmp	r2, #27
     ddc:	dd00      	ble.n	de0 <__aeabi_fsub+0x80>
     dde:	e131      	b.n	1044 <__aeabi_fsub+0x2e4>
     de0:	1c29      	adds	r1, r5, #0
     de2:	2020      	movs	r0, #32
     de4:	40d1      	lsrs	r1, r2
     de6:	1a82      	subs	r2, r0, r2
     de8:	4095      	lsls	r5, r2
     dea:	1e6a      	subs	r2, r5, #1
     dec:	4195      	sbcs	r5, r2
     dee:	430d      	orrs	r5, r1
     df0:	1b5b      	subs	r3, r3, r5
     df2:	0158      	lsls	r0, r3, #5
     df4:	d5d0      	bpl.n	d98 <__aeabi_fsub+0x38>
     df6:	019b      	lsls	r3, r3, #6
     df8:	099f      	lsrs	r7, r3, #6
     dfa:	1c38      	adds	r0, r7, #0
     dfc:	f000 f996 	bl	112c <__clzsi2>
     e00:	1f42      	subs	r2, r0, #5
     e02:	4097      	lsls	r7, r2
     e04:	4294      	cmp	r4, r2
     e06:	dc5f      	bgt.n	ec8 <__aeabi_fsub+0x168>
     e08:	1b14      	subs	r4, r2, r4
     e0a:	231f      	movs	r3, #31
     e0c:	1b1b      	subs	r3, r3, r4
     e0e:	1c3a      	adds	r2, r7, #0
     e10:	409f      	lsls	r7, r3
     e12:	1c61      	adds	r1, r4, #1
     e14:	1c3b      	adds	r3, r7, #0
     e16:	40ca      	lsrs	r2, r1
     e18:	1e5f      	subs	r7, r3, #1
     e1a:	41bb      	sbcs	r3, r7
     e1c:	4313      	orrs	r3, r2
     e1e:	2400      	movs	r4, #0
     e20:	e7ba      	b.n	d98 <__aeabi_fsub+0x38>
     e22:	1e13      	subs	r3, r2, #0
     e24:	d1b8      	bne.n	d98 <__aeabi_fsub+0x38>
     e26:	2300      	movs	r3, #0
     e28:	2200      	movs	r2, #0
     e2a:	08db      	lsrs	r3, r3, #3
     e2c:	2cff      	cmp	r4, #255	; 0xff
     e2e:	d104      	bne.n	e3a <__aeabi_fsub+0xda>
     e30:	2b00      	cmp	r3, #0
     e32:	d047      	beq.n	ec4 <__aeabi_fsub+0x164>
     e34:	2080      	movs	r0, #128	; 0x80
     e36:	03c0      	lsls	r0, r0, #15
     e38:	4303      	orrs	r3, r0
     e3a:	025b      	lsls	r3, r3, #9
     e3c:	0a5b      	lsrs	r3, r3, #9
     e3e:	e7bf      	b.n	dc0 <__aeabi_fsub+0x60>
     e40:	1a21      	subs	r1, r4, r0
     e42:	2900      	cmp	r1, #0
     e44:	dd44      	ble.n	ed0 <__aeabi_fsub+0x170>
     e46:	2800      	cmp	r0, #0
     e48:	d027      	beq.n	e9a <__aeabi_fsub+0x13a>
     e4a:	2cff      	cmp	r4, #255	; 0xff
     e4c:	d0a4      	beq.n	d98 <__aeabi_fsub+0x38>
     e4e:	2080      	movs	r0, #128	; 0x80
     e50:	04c0      	lsls	r0, r0, #19
     e52:	4305      	orrs	r5, r0
     e54:	291b      	cmp	r1, #27
     e56:	dd00      	ble.n	e5a <__aeabi_fsub+0xfa>
     e58:	e0f2      	b.n	1040 <__aeabi_fsub+0x2e0>
     e5a:	1c28      	adds	r0, r5, #0
     e5c:	2720      	movs	r7, #32
     e5e:	40c8      	lsrs	r0, r1
     e60:	1a79      	subs	r1, r7, r1
     e62:	408d      	lsls	r5, r1
     e64:	1e69      	subs	r1, r5, #1
     e66:	418d      	sbcs	r5, r1
     e68:	4305      	orrs	r5, r0
     e6a:	195b      	adds	r3, r3, r5
     e6c:	0159      	lsls	r1, r3, #5
     e6e:	d400      	bmi.n	e72 <__aeabi_fsub+0x112>
     e70:	e792      	b.n	d98 <__aeabi_fsub+0x38>
     e72:	3401      	adds	r4, #1
     e74:	2cff      	cmp	r4, #255	; 0xff
     e76:	d059      	beq.n	f2c <__aeabi_fsub+0x1cc>
     e78:	4973      	ldr	r1, [pc, #460]	; (1048 <__aeabi_fsub+0x2e8>)
     e7a:	2201      	movs	r2, #1
     e7c:	401a      	ands	r2, r3
     e7e:	400b      	ands	r3, r1
     e80:	085b      	lsrs	r3, r3, #1
     e82:	4313      	orrs	r3, r2
     e84:	e788      	b.n	d98 <__aeabi_fsub+0x38>
     e86:	2d00      	cmp	r5, #0
     e88:	d000      	beq.n	e8c <__aeabi_fsub+0x12c>
     e8a:	e77a      	b.n	d82 <__aeabi_fsub+0x22>
     e8c:	e777      	b.n	d7e <__aeabi_fsub+0x1e>
     e8e:	3a01      	subs	r2, #1
     e90:	2a00      	cmp	r2, #0
     e92:	d0ad      	beq.n	df0 <__aeabi_fsub+0x90>
     e94:	2cff      	cmp	r4, #255	; 0xff
     e96:	d1a0      	bne.n	dda <__aeabi_fsub+0x7a>
     e98:	e77e      	b.n	d98 <__aeabi_fsub+0x38>
     e9a:	2d00      	cmp	r5, #0
     e9c:	d100      	bne.n	ea0 <__aeabi_fsub+0x140>
     e9e:	e77b      	b.n	d98 <__aeabi_fsub+0x38>
     ea0:	3901      	subs	r1, #1
     ea2:	2900      	cmp	r1, #0
     ea4:	d0e1      	beq.n	e6a <__aeabi_fsub+0x10a>
     ea6:	2cff      	cmp	r4, #255	; 0xff
     ea8:	d1d4      	bne.n	e54 <__aeabi_fsub+0xf4>
     eaa:	e775      	b.n	d98 <__aeabi_fsub+0x38>
     eac:	2a00      	cmp	r2, #0
     eae:	d11b      	bne.n	ee8 <__aeabi_fsub+0x188>
     eb0:	1c62      	adds	r2, r4, #1
     eb2:	b2d2      	uxtb	r2, r2
     eb4:	2a01      	cmp	r2, #1
     eb6:	dd4b      	ble.n	f50 <__aeabi_fsub+0x1f0>
     eb8:	1b5f      	subs	r7, r3, r5
     eba:	017a      	lsls	r2, r7, #5
     ebc:	d523      	bpl.n	f06 <__aeabi_fsub+0x1a6>
     ebe:	1aef      	subs	r7, r5, r3
     ec0:	1c0e      	adds	r6, r1, #0
     ec2:	e79a      	b.n	dfa <__aeabi_fsub+0x9a>
     ec4:	2300      	movs	r3, #0
     ec6:	e77b      	b.n	dc0 <__aeabi_fsub+0x60>
     ec8:	4b5f      	ldr	r3, [pc, #380]	; (1048 <__aeabi_fsub+0x2e8>)
     eca:	1aa4      	subs	r4, r4, r2
     ecc:	403b      	ands	r3, r7
     ece:	e763      	b.n	d98 <__aeabi_fsub+0x38>
     ed0:	2900      	cmp	r1, #0
     ed2:	d146      	bne.n	f62 <__aeabi_fsub+0x202>
     ed4:	1c61      	adds	r1, r4, #1
     ed6:	b2c8      	uxtb	r0, r1
     ed8:	2801      	cmp	r0, #1
     eda:	dd29      	ble.n	f30 <__aeabi_fsub+0x1d0>
     edc:	29ff      	cmp	r1, #255	; 0xff
     ede:	d024      	beq.n	f2a <__aeabi_fsub+0x1ca>
     ee0:	18eb      	adds	r3, r5, r3
     ee2:	085b      	lsrs	r3, r3, #1
     ee4:	1c0c      	adds	r4, r1, #0
     ee6:	e757      	b.n	d98 <__aeabi_fsub+0x38>
     ee8:	2c00      	cmp	r4, #0
     eea:	d013      	beq.n	f14 <__aeabi_fsub+0x1b4>
     eec:	28ff      	cmp	r0, #255	; 0xff
     eee:	d018      	beq.n	f22 <__aeabi_fsub+0x1c2>
     ef0:	2480      	movs	r4, #128	; 0x80
     ef2:	04e4      	lsls	r4, r4, #19
     ef4:	4252      	negs	r2, r2
     ef6:	4323      	orrs	r3, r4
     ef8:	2a1b      	cmp	r2, #27
     efa:	dd4d      	ble.n	f98 <__aeabi_fsub+0x238>
     efc:	2301      	movs	r3, #1
     efe:	1aeb      	subs	r3, r5, r3
     f00:	1c04      	adds	r4, r0, #0
     f02:	1c0e      	adds	r6, r1, #0
     f04:	e775      	b.n	df2 <__aeabi_fsub+0x92>
     f06:	2f00      	cmp	r7, #0
     f08:	d000      	beq.n	f0c <__aeabi_fsub+0x1ac>
     f0a:	e776      	b.n	dfa <__aeabi_fsub+0x9a>
     f0c:	2300      	movs	r3, #0
     f0e:	2200      	movs	r2, #0
     f10:	2400      	movs	r4, #0
     f12:	e78a      	b.n	e2a <__aeabi_fsub+0xca>
     f14:	2b00      	cmp	r3, #0
     f16:	d03b      	beq.n	f90 <__aeabi_fsub+0x230>
     f18:	43d2      	mvns	r2, r2
     f1a:	2a00      	cmp	r2, #0
     f1c:	d0ef      	beq.n	efe <__aeabi_fsub+0x19e>
     f1e:	28ff      	cmp	r0, #255	; 0xff
     f20:	d1ea      	bne.n	ef8 <__aeabi_fsub+0x198>
     f22:	1c2b      	adds	r3, r5, #0
     f24:	24ff      	movs	r4, #255	; 0xff
     f26:	1c0e      	adds	r6, r1, #0
     f28:	e736      	b.n	d98 <__aeabi_fsub+0x38>
     f2a:	24ff      	movs	r4, #255	; 0xff
     f2c:	2300      	movs	r3, #0
     f2e:	e77c      	b.n	e2a <__aeabi_fsub+0xca>
     f30:	2c00      	cmp	r4, #0
     f32:	d15c      	bne.n	fee <__aeabi_fsub+0x28e>
     f34:	2b00      	cmp	r3, #0
     f36:	d100      	bne.n	f3a <__aeabi_fsub+0x1da>
     f38:	e080      	b.n	103c <__aeabi_fsub+0x2dc>
     f3a:	2d00      	cmp	r5, #0
     f3c:	d100      	bne.n	f40 <__aeabi_fsub+0x1e0>
     f3e:	e72b      	b.n	d98 <__aeabi_fsub+0x38>
     f40:	195b      	adds	r3, r3, r5
     f42:	0158      	lsls	r0, r3, #5
     f44:	d400      	bmi.n	f48 <__aeabi_fsub+0x1e8>
     f46:	e727      	b.n	d98 <__aeabi_fsub+0x38>
     f48:	4a3f      	ldr	r2, [pc, #252]	; (1048 <__aeabi_fsub+0x2e8>)
     f4a:	2401      	movs	r4, #1
     f4c:	4013      	ands	r3, r2
     f4e:	e723      	b.n	d98 <__aeabi_fsub+0x38>
     f50:	2c00      	cmp	r4, #0
     f52:	d115      	bne.n	f80 <__aeabi_fsub+0x220>
     f54:	2b00      	cmp	r3, #0
     f56:	d140      	bne.n	fda <__aeabi_fsub+0x27a>
     f58:	2d00      	cmp	r5, #0
     f5a:	d063      	beq.n	1024 <__aeabi_fsub+0x2c4>
     f5c:	1c2b      	adds	r3, r5, #0
     f5e:	1c0e      	adds	r6, r1, #0
     f60:	e71a      	b.n	d98 <__aeabi_fsub+0x38>
     f62:	2c00      	cmp	r4, #0
     f64:	d121      	bne.n	faa <__aeabi_fsub+0x24a>
     f66:	2b00      	cmp	r3, #0
     f68:	d054      	beq.n	1014 <__aeabi_fsub+0x2b4>
     f6a:	43c9      	mvns	r1, r1
     f6c:	2900      	cmp	r1, #0
     f6e:	d004      	beq.n	f7a <__aeabi_fsub+0x21a>
     f70:	28ff      	cmp	r0, #255	; 0xff
     f72:	d04c      	beq.n	100e <__aeabi_fsub+0x2ae>
     f74:	291b      	cmp	r1, #27
     f76:	dd58      	ble.n	102a <__aeabi_fsub+0x2ca>
     f78:	2301      	movs	r3, #1
     f7a:	195b      	adds	r3, r3, r5
     f7c:	1c04      	adds	r4, r0, #0
     f7e:	e775      	b.n	e6c <__aeabi_fsub+0x10c>
     f80:	2b00      	cmp	r3, #0
     f82:	d119      	bne.n	fb8 <__aeabi_fsub+0x258>
     f84:	2d00      	cmp	r5, #0
     f86:	d048      	beq.n	101a <__aeabi_fsub+0x2ba>
     f88:	1c2b      	adds	r3, r5, #0
     f8a:	1c0e      	adds	r6, r1, #0
     f8c:	24ff      	movs	r4, #255	; 0xff
     f8e:	e703      	b.n	d98 <__aeabi_fsub+0x38>
     f90:	1c2b      	adds	r3, r5, #0
     f92:	1c04      	adds	r4, r0, #0
     f94:	1c0e      	adds	r6, r1, #0
     f96:	e6ff      	b.n	d98 <__aeabi_fsub+0x38>
     f98:	1c1c      	adds	r4, r3, #0
     f9a:	2620      	movs	r6, #32
     f9c:	40d4      	lsrs	r4, r2
     f9e:	1ab2      	subs	r2, r6, r2
     fa0:	4093      	lsls	r3, r2
     fa2:	1e5a      	subs	r2, r3, #1
     fa4:	4193      	sbcs	r3, r2
     fa6:	4323      	orrs	r3, r4
     fa8:	e7a9      	b.n	efe <__aeabi_fsub+0x19e>
     faa:	28ff      	cmp	r0, #255	; 0xff
     fac:	d02f      	beq.n	100e <__aeabi_fsub+0x2ae>
     fae:	2480      	movs	r4, #128	; 0x80
     fb0:	04e4      	lsls	r4, r4, #19
     fb2:	4249      	negs	r1, r1
     fb4:	4323      	orrs	r3, r4
     fb6:	e7dd      	b.n	f74 <__aeabi_fsub+0x214>
     fb8:	24ff      	movs	r4, #255	; 0xff
     fba:	2d00      	cmp	r5, #0
     fbc:	d100      	bne.n	fc0 <__aeabi_fsub+0x260>
     fbe:	e6eb      	b.n	d98 <__aeabi_fsub+0x38>
     fc0:	2280      	movs	r2, #128	; 0x80
     fc2:	08db      	lsrs	r3, r3, #3
     fc4:	03d2      	lsls	r2, r2, #15
     fc6:	4213      	tst	r3, r2
     fc8:	d004      	beq.n	fd4 <__aeabi_fsub+0x274>
     fca:	08ed      	lsrs	r5, r5, #3
     fcc:	4215      	tst	r5, r2
     fce:	d101      	bne.n	fd4 <__aeabi_fsub+0x274>
     fd0:	1c2b      	adds	r3, r5, #0
     fd2:	1c0e      	adds	r6, r1, #0
     fd4:	00db      	lsls	r3, r3, #3
     fd6:	24ff      	movs	r4, #255	; 0xff
     fd8:	e6de      	b.n	d98 <__aeabi_fsub+0x38>
     fda:	2d00      	cmp	r5, #0
     fdc:	d100      	bne.n	fe0 <__aeabi_fsub+0x280>
     fde:	e6db      	b.n	d98 <__aeabi_fsub+0x38>
     fe0:	1b5a      	subs	r2, r3, r5
     fe2:	0150      	lsls	r0, r2, #5
     fe4:	d400      	bmi.n	fe8 <__aeabi_fsub+0x288>
     fe6:	e71c      	b.n	e22 <__aeabi_fsub+0xc2>
     fe8:	1aeb      	subs	r3, r5, r3
     fea:	1c0e      	adds	r6, r1, #0
     fec:	e6d4      	b.n	d98 <__aeabi_fsub+0x38>
     fee:	2b00      	cmp	r3, #0
     ff0:	d00d      	beq.n	100e <__aeabi_fsub+0x2ae>
     ff2:	24ff      	movs	r4, #255	; 0xff
     ff4:	2d00      	cmp	r5, #0
     ff6:	d100      	bne.n	ffa <__aeabi_fsub+0x29a>
     ff8:	e6ce      	b.n	d98 <__aeabi_fsub+0x38>
     ffa:	2280      	movs	r2, #128	; 0x80
     ffc:	08db      	lsrs	r3, r3, #3
     ffe:	03d2      	lsls	r2, r2, #15
    1000:	4213      	tst	r3, r2
    1002:	d0e7      	beq.n	fd4 <__aeabi_fsub+0x274>
    1004:	08ed      	lsrs	r5, r5, #3
    1006:	4215      	tst	r5, r2
    1008:	d1e4      	bne.n	fd4 <__aeabi_fsub+0x274>
    100a:	1c2b      	adds	r3, r5, #0
    100c:	e7e2      	b.n	fd4 <__aeabi_fsub+0x274>
    100e:	1c2b      	adds	r3, r5, #0
    1010:	24ff      	movs	r4, #255	; 0xff
    1012:	e6c1      	b.n	d98 <__aeabi_fsub+0x38>
    1014:	1c2b      	adds	r3, r5, #0
    1016:	1c04      	adds	r4, r0, #0
    1018:	e6be      	b.n	d98 <__aeabi_fsub+0x38>
    101a:	2380      	movs	r3, #128	; 0x80
    101c:	2200      	movs	r2, #0
    101e:	049b      	lsls	r3, r3, #18
    1020:	24ff      	movs	r4, #255	; 0xff
    1022:	e702      	b.n	e2a <__aeabi_fsub+0xca>
    1024:	1c23      	adds	r3, r4, #0
    1026:	2200      	movs	r2, #0
    1028:	e6ff      	b.n	e2a <__aeabi_fsub+0xca>
    102a:	1c1c      	adds	r4, r3, #0
    102c:	2720      	movs	r7, #32
    102e:	40cc      	lsrs	r4, r1
    1030:	1a79      	subs	r1, r7, r1
    1032:	408b      	lsls	r3, r1
    1034:	1e59      	subs	r1, r3, #1
    1036:	418b      	sbcs	r3, r1
    1038:	4323      	orrs	r3, r4
    103a:	e79e      	b.n	f7a <__aeabi_fsub+0x21a>
    103c:	1c2b      	adds	r3, r5, #0
    103e:	e6ab      	b.n	d98 <__aeabi_fsub+0x38>
    1040:	2501      	movs	r5, #1
    1042:	e712      	b.n	e6a <__aeabi_fsub+0x10a>
    1044:	2501      	movs	r5, #1
    1046:	e6d3      	b.n	df0 <__aeabi_fsub+0x90>
    1048:	fbffffff 	.word	0xfbffffff

0000104c <__aeabi_f2iz>:
__aeabi_f2iz():
    104c:	0243      	lsls	r3, r0, #9
    104e:	0a59      	lsrs	r1, r3, #9
    1050:	0043      	lsls	r3, r0, #1
    1052:	0fc2      	lsrs	r2, r0, #31
    1054:	0e1b      	lsrs	r3, r3, #24
    1056:	2000      	movs	r0, #0
    1058:	2b7e      	cmp	r3, #126	; 0x7e
    105a:	dd0d      	ble.n	1078 <__aeabi_f2iz+0x2c>
    105c:	2b9d      	cmp	r3, #157	; 0x9d
    105e:	dc0c      	bgt.n	107a <__aeabi_f2iz+0x2e>
    1060:	2080      	movs	r0, #128	; 0x80
    1062:	0400      	lsls	r0, r0, #16
    1064:	4301      	orrs	r1, r0
    1066:	2b95      	cmp	r3, #149	; 0x95
    1068:	dc0a      	bgt.n	1080 <__aeabi_f2iz+0x34>
    106a:	2096      	movs	r0, #150	; 0x96
    106c:	1ac3      	subs	r3, r0, r3
    106e:	40d9      	lsrs	r1, r3
    1070:	4248      	negs	r0, r1
    1072:	2a00      	cmp	r2, #0
    1074:	d100      	bne.n	1078 <__aeabi_f2iz+0x2c>
    1076:	1c08      	adds	r0, r1, #0
    1078:	4770      	bx	lr
    107a:	4b03      	ldr	r3, [pc, #12]	; (1088 <__aeabi_f2iz+0x3c>)
    107c:	18d0      	adds	r0, r2, r3
    107e:	e7fb      	b.n	1078 <__aeabi_f2iz+0x2c>
    1080:	3b96      	subs	r3, #150	; 0x96
    1082:	4099      	lsls	r1, r3
    1084:	e7f4      	b.n	1070 <__aeabi_f2iz+0x24>
    1086:	46c0      	nop			; (mov r8, r8)
    1088:	7fffffff 	.word	0x7fffffff

0000108c <__aeabi_ui2f>:
__aeabi_ui2f():
    108c:	b510      	push	{r4, lr}
    108e:	1e04      	subs	r4, r0, #0
    1090:	d033      	beq.n	10fa <__aeabi_ui2f+0x6e>
    1092:	f000 f84b 	bl	112c <__clzsi2>
    1096:	239e      	movs	r3, #158	; 0x9e
    1098:	1a1b      	subs	r3, r3, r0
    109a:	2b96      	cmp	r3, #150	; 0x96
    109c:	dc09      	bgt.n	10b2 <__aeabi_ui2f+0x26>
    109e:	3808      	subs	r0, #8
    10a0:	4084      	lsls	r4, r0
    10a2:	0264      	lsls	r4, r4, #9
    10a4:	0a64      	lsrs	r4, r4, #9
    10a6:	b2db      	uxtb	r3, r3
    10a8:	0264      	lsls	r4, r4, #9
    10aa:	05db      	lsls	r3, r3, #23
    10ac:	0a60      	lsrs	r0, r4, #9
    10ae:	4318      	orrs	r0, r3
    10b0:	bd10      	pop	{r4, pc}
    10b2:	2b99      	cmp	r3, #153	; 0x99
    10b4:	dd0a      	ble.n	10cc <__aeabi_ui2f+0x40>
    10b6:	2205      	movs	r2, #5
    10b8:	1a12      	subs	r2, r2, r0
    10ba:	1c21      	adds	r1, r4, #0
    10bc:	40d1      	lsrs	r1, r2
    10be:	1c0a      	adds	r2, r1, #0
    10c0:	1c01      	adds	r1, r0, #0
    10c2:	311b      	adds	r1, #27
    10c4:	408c      	lsls	r4, r1
    10c6:	1e61      	subs	r1, r4, #1
    10c8:	418c      	sbcs	r4, r1
    10ca:	4314      	orrs	r4, r2
    10cc:	2805      	cmp	r0, #5
    10ce:	dd01      	ble.n	10d4 <__aeabi_ui2f+0x48>
    10d0:	1f42      	subs	r2, r0, #5
    10d2:	4094      	lsls	r4, r2
    10d4:	4a14      	ldr	r2, [pc, #80]	; (1128 <__aeabi_ui2f+0x9c>)
    10d6:	4022      	ands	r2, r4
    10d8:	0761      	lsls	r1, r4, #29
    10da:	d004      	beq.n	10e6 <__aeabi_ui2f+0x5a>
    10dc:	210f      	movs	r1, #15
    10de:	400c      	ands	r4, r1
    10e0:	2c04      	cmp	r4, #4
    10e2:	d000      	beq.n	10e6 <__aeabi_ui2f+0x5a>
    10e4:	3204      	adds	r2, #4
    10e6:	0151      	lsls	r1, r2, #5
    10e8:	d50a      	bpl.n	1100 <__aeabi_ui2f+0x74>
    10ea:	239f      	movs	r3, #159	; 0x9f
    10ec:	1a18      	subs	r0, r3, r0
    10ee:	28ff      	cmp	r0, #255	; 0xff
    10f0:	d016      	beq.n	1120 <__aeabi_ui2f+0x94>
    10f2:	0194      	lsls	r4, r2, #6
    10f4:	0a64      	lsrs	r4, r4, #9
    10f6:	b2c3      	uxtb	r3, r0
    10f8:	e7d6      	b.n	10a8 <__aeabi_ui2f+0x1c>
    10fa:	2300      	movs	r3, #0
    10fc:	2400      	movs	r4, #0
    10fe:	e7d3      	b.n	10a8 <__aeabi_ui2f+0x1c>
    1100:	08d2      	lsrs	r2, r2, #3
    1102:	2bff      	cmp	r3, #255	; 0xff
    1104:	d003      	beq.n	110e <__aeabi_ui2f+0x82>
    1106:	0254      	lsls	r4, r2, #9
    1108:	0a64      	lsrs	r4, r4, #9
    110a:	b2db      	uxtb	r3, r3
    110c:	e7cc      	b.n	10a8 <__aeabi_ui2f+0x1c>
    110e:	2a00      	cmp	r2, #0
    1110:	d006      	beq.n	1120 <__aeabi_ui2f+0x94>
    1112:	2480      	movs	r4, #128	; 0x80
    1114:	03e4      	lsls	r4, r4, #15
    1116:	4314      	orrs	r4, r2
    1118:	0264      	lsls	r4, r4, #9
    111a:	0a64      	lsrs	r4, r4, #9
    111c:	23ff      	movs	r3, #255	; 0xff
    111e:	e7c3      	b.n	10a8 <__aeabi_ui2f+0x1c>
    1120:	23ff      	movs	r3, #255	; 0xff
    1122:	2400      	movs	r4, #0
    1124:	e7c0      	b.n	10a8 <__aeabi_ui2f+0x1c>
    1126:	46c0      	nop			; (mov r8, r8)
    1128:	fbffffff 	.word	0xfbffffff

0000112c <__clzsi2>:
__clzsi2():
    112c:	211c      	movs	r1, #28
    112e:	2301      	movs	r3, #1
    1130:	041b      	lsls	r3, r3, #16
    1132:	4298      	cmp	r0, r3
    1134:	d301      	bcc.n	113a <__clzsi2+0xe>
    1136:	0c00      	lsrs	r0, r0, #16
    1138:	3910      	subs	r1, #16
    113a:	0a1b      	lsrs	r3, r3, #8
    113c:	4298      	cmp	r0, r3
    113e:	d301      	bcc.n	1144 <__clzsi2+0x18>
    1140:	0a00      	lsrs	r0, r0, #8
    1142:	3908      	subs	r1, #8
    1144:	091b      	lsrs	r3, r3, #4
    1146:	4298      	cmp	r0, r3
    1148:	d301      	bcc.n	114e <__clzsi2+0x22>
    114a:	0900      	lsrs	r0, r0, #4
    114c:	3904      	subs	r1, #4
    114e:	a202      	add	r2, pc, #8	; (adr r2, 1158 <__clzsi2+0x2c>)
    1150:	5c10      	ldrb	r0, [r2, r0]
    1152:	1840      	adds	r0, r0, r1
    1154:	4770      	bx	lr
    1156:	46c0      	nop			; (mov r8, r8)
    1158:	02020304 	.word	0x02020304
    115c:	01010101 	.word	0x01010101
	...

00001168 <UART0_IRQHandler>:
UART0_IRQHandler():
E:\BOBO_KDS\KL25_DS18_GPRS\Debug/../08_Source/isr.c:17
//extern uint_16 oled_count;

//========================中断函数服务例程===============================
//串口0接收中断服务例程
void UART0_IRQHandler(void)
{
    1168:	b590      	push	{r4, r7, lr}
    116a:	b083      	sub	sp, #12
    116c:	af00      	add	r7, sp, #0
__disable_irq():
E:/BOBO_KDS/KL25_DS18_GPRS/02_CPU/core_cmFunc.h:344
  This function disables IRQ interrupts by setting the I-bit in the CPSR.
  Can only be executed in Privileged modes.
 */
__attribute__( ( always_inline ) ) __STATIC_INLINE void __disable_irq(void)
{
  __ASM volatile ("cpsid i" : : : "memory");
    116e:	b672      	cpsid	i
UART0_IRQHandler():
E:\BOBO_KDS\KL25_DS18_GPRS\Debug/../08_Source/isr.c:21
    uint_8 ch;
    uint_8 flag;
    DISABLE_INTERRUPTS;    //关总中断
    if(uart_get_re_int(UART_0))
    1170:	2000      	movs	r0, #0
    1172:	f001 fcb9 	bl	2ae8 <uart_get_re_int>
    1176:	1c03      	adds	r3, r0, #0
    1178:	2b00      	cmp	r3, #0
    117a:	d011      	beq.n	11a0 <UART0_IRQHandler+0x38>
E:\BOBO_KDS\KL25_DS18_GPRS\Debug/../08_Source/isr.c:23
    {
        ch = uart_re1(UART_0, &flag);    //调用接收一个字节的函数，清接收中断位
    117c:	1dfc      	adds	r4, r7, #7
    117e:	1dbb      	adds	r3, r7, #6
    1180:	2000      	movs	r0, #0
    1182:	1c19      	adds	r1, r3, #0
    1184:	f001 fc0e 	bl	29a4 <uart_re1>
    1188:	1c03      	adds	r3, r0, #0
    118a:	7023      	strb	r3, [r4, #0]
E:\BOBO_KDS\KL25_DS18_GPRS\Debug/../08_Source/isr.c:24
        if(flag)
    118c:	1dbb      	adds	r3, r7, #6
    118e:	781b      	ldrb	r3, [r3, #0]
    1190:	2b00      	cmp	r3, #0
    1192:	d005      	beq.n	11a0 <UART0_IRQHandler+0x38>
E:\BOBO_KDS\KL25_DS18_GPRS\Debug/../08_Source/isr.c:26
        {
            uart_send1(UART_0, ch);     //向原串口发回一个字节
    1194:	1dfb      	adds	r3, r7, #7
    1196:	781b      	ldrb	r3, [r3, #0]
    1198:	2000      	movs	r0, #0
    119a:	1c19      	adds	r1, r3, #0
    119c:	f001 fb26 	bl	27ec <uart_send1>
__enable_irq():
E:/BOBO_KDS/KL25_DS18_GPRS/02_CPU/core_cmFunc.h:333
  This function enables IRQ interrupts by clearing the I-bit in the CPSR.
  Can only be executed in Privileged modes.
 */
__attribute__( ( always_inline ) ) __STATIC_INLINE void __enable_irq(void)
{
  __ASM volatile ("cpsie i" : : : "memory");
    11a0:	b662      	cpsie	i
UART0_IRQHandler():
E:\BOBO_KDS\KL25_DS18_GPRS\Debug/../08_Source/isr.c:30
        }
    }
    ENABLE_INTERRUPTS;
}
    11a2:	46bd      	mov	sp, r7
    11a4:	b003      	add	sp, #12
    11a6:	bd90      	pop	{r4, r7, pc}

000011a8 <UART1_IRQHandler>:
UART1_IRQHandler():
E:\BOBO_KDS\KL25_DS18_GPRS\Debug/../08_Source/isr.c:34

//串口1接收中断服务例程
void UART1_IRQHandler(void)
{
    11a8:	b590      	push	{r4, r7, lr}
    11aa:	b083      	sub	sp, #12
    11ac:	af00      	add	r7, sp, #0
__disable_irq():
E:/BOBO_KDS/KL25_DS18_GPRS/02_CPU/core_cmFunc.h:344
  This function disables IRQ interrupts by setting the I-bit in the CPSR.
  Can only be executed in Privileged modes.
 */
__attribute__( ( always_inline ) ) __STATIC_INLINE void __disable_irq(void)
{
  __ASM volatile ("cpsid i" : : : "memory");
    11ae:	b672      	cpsid	i
UART1_IRQHandler():
E:\BOBO_KDS\KL25_DS18_GPRS\Debug/../08_Source/isr.c:40
    uint_8 ch;
    uint_8 flag;
    //用来计数
//    static uint_16 Received_count = 0;
    DISABLE_INTERRUPTS;    //关总中断
    if(uart_get_re_int(UART_1))
    11b0:	2001      	movs	r0, #1
    11b2:	f001 fc99 	bl	2ae8 <uart_get_re_int>
    11b6:	1c03      	adds	r3, r0, #0
    11b8:	2b00      	cmp	r3, #0
    11ba:	d011      	beq.n	11e0 <UART1_IRQHandler+0x38>
E:\BOBO_KDS\KL25_DS18_GPRS\Debug/../08_Source/isr.c:42
    {
        ch = uart_re1(UART_1, &flag);    //调用接收一个字节的函数，清接收中断位
    11bc:	1dfc      	adds	r4, r7, #7
    11be:	1dbb      	adds	r3, r7, #6
    11c0:	2001      	movs	r0, #1
    11c2:	1c19      	adds	r1, r3, #0
    11c4:	f001 fbee 	bl	29a4 <uart_re1>
    11c8:	1c03      	adds	r3, r0, #0
    11ca:	7023      	strb	r3, [r4, #0]
E:\BOBO_KDS\KL25_DS18_GPRS\Debug/../08_Source/isr.c:43
        if(flag)
    11cc:	1dbb      	adds	r3, r7, #6
    11ce:	781b      	ldrb	r3, [r3, #0]
    11d0:	2b00      	cmp	r3, #0
    11d2:	d005      	beq.n	11e0 <UART1_IRQHandler+0x38>
E:\BOBO_KDS\KL25_DS18_GPRS\Debug/../08_Source/isr.c:45
        {
            uart_send1(UART_1, ch);     //向原串口发回一个字节
    11d4:	1dfb      	adds	r3, r7, #7
    11d6:	781b      	ldrb	r3, [r3, #0]
    11d8:	2001      	movs	r0, #1
    11da:	1c19      	adds	r1, r3, #0
    11dc:	f001 fb06 	bl	27ec <uart_send1>
__enable_irq():
E:/BOBO_KDS/KL25_DS18_GPRS/02_CPU/core_cmFunc.h:333
  This function enables IRQ interrupts by clearing the I-bit in the CPSR.
  Can only be executed in Privileged modes.
 */
__attribute__( ( always_inline ) ) __STATIC_INLINE void __enable_irq(void)
{
  __ASM volatile ("cpsie i" : : : "memory");
    11e0:	b662      	cpsie	i
UART1_IRQHandler():
E:\BOBO_KDS\KL25_DS18_GPRS\Debug/../08_Source/isr.c:49
        }
    }
    ENABLE_INTERRUPTS;
}
    11e2:	46bd      	mov	sp, r7
    11e4:	b003      	add	sp, #12
    11e6:	bd90      	pop	{r4, r7, pc}

000011e8 <UART2_IRQHandler>:
UART2_IRQHandler():
E:\BOBO_KDS\KL25_DS18_GPRS\Debug/../08_Source/isr.c:53

//串口2接收中断服务例程
void UART2_IRQHandler(void)
{
    11e8:	b590      	push	{r4, r7, lr}
    11ea:	b083      	sub	sp, #12
    11ec:	af00      	add	r7, sp, #0
__disable_irq():
E:/BOBO_KDS/KL25_DS18_GPRS/02_CPU/core_cmFunc.h:344
  This function disables IRQ interrupts by setting the I-bit in the CPSR.
  Can only be executed in Privileged modes.
 */
__attribute__( ( always_inline ) ) __STATIC_INLINE void __disable_irq(void)
{
  __ASM volatile ("cpsid i" : : : "memory");
    11ee:	b672      	cpsid	i
UART2_IRQHandler():
E:\BOBO_KDS\KL25_DS18_GPRS\Debug/../08_Source/isr.c:59
    uint_8 ch;
    uint_8 flag;
    static uint_8 Received_count = 0;
    static uint_8 data_count = 0;
    DISABLE_INTERRUPTS;    //关总中断
    if(uart_get_re_int(UART_2))
    11f0:	2002      	movs	r0, #2
    11f2:	f001 fc79 	bl	2ae8 <uart_get_re_int>
    11f6:	1c03      	adds	r3, r0, #0
    11f8:	2b00      	cmp	r3, #0
    11fa:	d03e      	beq.n	127a <UART2_IRQHandler+0x92>
E:\BOBO_KDS\KL25_DS18_GPRS\Debug/../08_Source/isr.c:61
    {
        ch = uart_re1(UART_2, &flag);    //调用接收一个字节的函数，清接收中断位
    11fc:	1dfc      	adds	r4, r7, #7
    11fe:	1dbb      	adds	r3, r7, #6
    1200:	2002      	movs	r0, #2
    1202:	1c19      	adds	r1, r3, #0
    1204:	f001 fbce 	bl	29a4 <uart_re1>
    1208:	1c03      	adds	r3, r0, #0
    120a:	7023      	strb	r3, [r4, #0]
E:\BOBO_KDS\KL25_DS18_GPRS\Debug/../08_Source/isr.c:62
        if(flag)
    120c:	1dbb      	adds	r3, r7, #6
    120e:	781b      	ldrb	r3, [r3, #0]
    1210:	2b00      	cmp	r3, #0
    1212:	d032      	beq.n	127a <UART2_IRQHandler+0x92>
E:\BOBO_KDS\KL25_DS18_GPRS\Debug/../08_Source/isr.c:64
        {
			if(ch != '\0')
    1214:	1dfb      	adds	r3, r7, #7
    1216:	781b      	ldrb	r3, [r3, #0]
    1218:	2b00      	cmp	r3, #0
    121a:	d012      	beq.n	1242 <UART2_IRQHandler+0x5a>
E:\BOBO_KDS\KL25_DS18_GPRS\Debug/../08_Source/isr.c:66
			{
				Data_Buf[data_count] = ch;
    121c:	4b19      	ldr	r3, [pc, #100]	; (1284 <UART2_IRQHandler+0x9c>)
    121e:	781b      	ldrb	r3, [r3, #0]
    1220:	1dfa      	adds	r2, r7, #7
    1222:	7811      	ldrb	r1, [r2, #0]
    1224:	4a18      	ldr	r2, [pc, #96]	; (1288 <UART2_IRQHandler+0xa0>)
    1226:	54d1      	strb	r1, [r2, r3]
E:\BOBO_KDS\KL25_DS18_GPRS\Debug/../08_Source/isr.c:67
				data_count++;
    1228:	4b16      	ldr	r3, [pc, #88]	; (1284 <UART2_IRQHandler+0x9c>)
    122a:	781b      	ldrb	r3, [r3, #0]
    122c:	3301      	adds	r3, #1
    122e:	b2da      	uxtb	r2, r3
    1230:	4b14      	ldr	r3, [pc, #80]	; (1284 <UART2_IRQHandler+0x9c>)
    1232:	701a      	strb	r2, [r3, #0]
E:\BOBO_KDS\KL25_DS18_GPRS\Debug/../08_Source/isr.c:68
				if(data_count > BUF_MAX)
    1234:	4b13      	ldr	r3, [pc, #76]	; (1284 <UART2_IRQHandler+0x9c>)
    1236:	781b      	ldrb	r3, [r3, #0]
    1238:	2b64      	cmp	r3, #100	; 0x64
    123a:	d902      	bls.n	1242 <UART2_IRQHandler+0x5a>
E:\BOBO_KDS\KL25_DS18_GPRS\Debug/../08_Source/isr.c:70
				{
					data_count = 0;
    123c:	4b11      	ldr	r3, [pc, #68]	; (1284 <UART2_IRQHandler+0x9c>)
    123e:	2200      	movs	r2, #0
    1240:	701a      	strb	r2, [r3, #0]
E:\BOBO_KDS\KL25_DS18_GPRS\Debug/../08_Source/isr.c:75
				}
			}

        	//用于接受服务器转发的数据
        	if(ch == 0xEE)
    1242:	1dfb      	adds	r3, r7, #7
    1244:	781b      	ldrb	r3, [r3, #0]
    1246:	2bee      	cmp	r3, #238	; 0xee
    1248:	d103      	bne.n	1252 <UART2_IRQHandler+0x6a>
E:\BOBO_KDS\KL25_DS18_GPRS\Debug/../08_Source/isr.c:77
        	{
        		Received_count = 0;
    124a:	4b10      	ldr	r3, [pc, #64]	; (128c <UART2_IRQHandler+0xa4>)
    124c:	2200      	movs	r2, #0
    124e:	701a      	strb	r2, [r3, #0]
    1250:	e013      	b.n	127a <UART2_IRQHandler+0x92>
E:\BOBO_KDS\KL25_DS18_GPRS\Debug/../08_Source/isr.c:82
        		//Received_flag = 0;
        	}
        	else
        	{
        		if(ch == 0xEF)
    1252:	1dfb      	adds	r3, r7, #7
    1254:	781b      	ldrb	r3, [r3, #0]
    1256:	2bef      	cmp	r3, #239	; 0xef
    1258:	d103      	bne.n	1262 <UART2_IRQHandler+0x7a>
E:\BOBO_KDS\KL25_DS18_GPRS\Debug/../08_Source/isr.c:84
        		{
        			Received_flag = 1;
    125a:	4b0d      	ldr	r3, [pc, #52]	; (1290 <UART2_IRQHandler+0xa8>)
    125c:	2201      	movs	r2, #1
    125e:	701a      	strb	r2, [r3, #0]
    1260:	e00b      	b.n	127a <UART2_IRQHandler+0x92>
E:\BOBO_KDS\KL25_DS18_GPRS\Debug/../08_Source/isr.c:91
        			//这也是KL25向服务器发送确认指令，标志服务器发送成功
//        			GPRS_Send_Data((uint_8 *)"EE");
        		}
        		else
        		{
        			Date_Re[Received_count] = ch;
    1262:	4b0a      	ldr	r3, [pc, #40]	; (128c <UART2_IRQHandler+0xa4>)
    1264:	781b      	ldrb	r3, [r3, #0]
    1266:	1dfa      	adds	r2, r7, #7
    1268:	7811      	ldrb	r1, [r2, #0]
    126a:	4a0a      	ldr	r2, [pc, #40]	; (1294 <UART2_IRQHandler+0xac>)
    126c:	54d1      	strb	r1, [r2, r3]
E:\BOBO_KDS\KL25_DS18_GPRS\Debug/../08_Source/isr.c:92
        			Received_count++;
    126e:	4b07      	ldr	r3, [pc, #28]	; (128c <UART2_IRQHandler+0xa4>)
    1270:	781b      	ldrb	r3, [r3, #0]
    1272:	3301      	adds	r3, #1
    1274:	b2da      	uxtb	r2, r3
    1276:	4b05      	ldr	r3, [pc, #20]	; (128c <UART2_IRQHandler+0xa4>)
    1278:	701a      	strb	r2, [r3, #0]
__enable_irq():
E:/BOBO_KDS/KL25_DS18_GPRS/02_CPU/core_cmFunc.h:333
  This function enables IRQ interrupts by clearing the I-bit in the CPSR.
  Can only be executed in Privileged modes.
 */
__attribute__( ( always_inline ) ) __STATIC_INLINE void __enable_irq(void)
{
  __ASM volatile ("cpsie i" : : : "memory");
    127a:	b662      	cpsie	i
UART2_IRQHandler():
E:\BOBO_KDS\KL25_DS18_GPRS\Debug/../08_Source/isr.c:101

//            uart_send1(UART_2, ch);     //向原串口发回一个字节
        }
    }
    ENABLE_INTERRUPTS;
}
    127c:	46bd      	mov	sp, r7
    127e:	b003      	add	sp, #12
    1280:	bd90      	pop	{r4, r7, pc}
    1282:	46c0      	nop			; (mov r8, r8)
    1284:	1ffff01c 	.word	0x1ffff01c
    1288:	1ffff02c 	.word	0x1ffff02c
    128c:	1ffff01d 	.word	0x1ffff01d
    1290:	1ffff094 	.word	0x1ffff094
    1294:	1ffff028 	.word	0x1ffff028

00001298 <TPM1_IRQHandler>:
TPM1_IRQHandler():
E:\BOBO_KDS\KL25_DS18_GPRS\Debug/../08_Source/isr.c:115
//	}
//}

//TPM1中断服务例程
void TPM1_IRQHandler(void)
{
    1298:	b580      	push	{r7, lr}
    129a:	af00      	add	r7, sp, #0
E:\BOBO_KDS\KL25_DS18_GPRS\Debug/../08_Source/isr.c:116
	if(tpm_get_int(TPM_1) == 1)   //若有TPM1的溢出中断
    129c:	2001      	movs	r0, #1
    129e:	f001 fd51 	bl	2d44 <tpm_get_int>
    12a2:	1c03      	adds	r3, r0, #0
    12a4:	2b01      	cmp	r3, #1
    12a6:	d114      	bne.n	12d2 <TPM1_IRQHandler+0x3a>
E:\BOBO_KDS\KL25_DS18_GPRS\Debug/../08_Source/isr.c:118
	{
		tpm_clear_int(TPM_1);     //清TPM1的溢出中断标志
    12a8:	2001      	movs	r0, #1
    12aa:	f001 fd63 	bl	2d74 <tpm_clear_int>
E:\BOBO_KDS\KL25_DS18_GPRS\Debug/../08_Source/isr.c:120
		//控制GPRS显示的时间
		gprs_count--;
    12ae:	4b0a      	ldr	r3, [pc, #40]	; (12d8 <TPM1_IRQHandler+0x40>)
    12b0:	881b      	ldrh	r3, [r3, #0]
    12b2:	3b01      	subs	r3, #1
    12b4:	b29a      	uxth	r2, r3
    12b6:	4b08      	ldr	r3, [pc, #32]	; (12d8 <TPM1_IRQHandler+0x40>)
    12b8:	801a      	strh	r2, [r3, #0]
E:\BOBO_KDS\KL25_DS18_GPRS\Debug/../08_Source/isr.c:122
		//每次自加1，经过了10ms
		tpm_count++ ;
    12ba:	4b08      	ldr	r3, [pc, #32]	; (12dc <TPM1_IRQHandler+0x44>)
    12bc:	881b      	ldrh	r3, [r3, #0]
    12be:	3301      	adds	r3, #1
    12c0:	b29a      	uxth	r2, r3
    12c2:	4b06      	ldr	r3, [pc, #24]	; (12dc <TPM1_IRQHandler+0x44>)
    12c4:	801a      	strh	r2, [r3, #0]
E:\BOBO_KDS\KL25_DS18_GPRS\Debug/../08_Source/isr.c:124
		//控制OLED显示的时间
		oled_count++;
    12c6:	4b06      	ldr	r3, [pc, #24]	; (12e0 <TPM1_IRQHandler+0x48>)
    12c8:	881b      	ldrh	r3, [r3, #0]
    12ca:	3301      	adds	r3, #1
    12cc:	b29a      	uxth	r2, r3
    12ce:	4b04      	ldr	r3, [pc, #16]	; (12e0 <TPM1_IRQHandler+0x48>)
    12d0:	801a      	strh	r2, [r3, #0]
E:\BOBO_KDS\KL25_DS18_GPRS\Debug/../08_Source/isr.c:126
	}
}
    12d2:	46bd      	mov	sp, r7
    12d4:	bd80      	pop	{r7, pc}
    12d6:	46c0      	nop			; (mov r8, r8)
    12d8:	1ffff024 	.word	0x1ffff024
    12dc:	1ffff092 	.word	0x1ffff092
    12e0:	1ffff090 	.word	0x1ffff090

000012e4 <main>:
main():
E:\BOBO_KDS\KL25_DS18_GPRS\Debug/../08_Source/main.c:29
uint_8 red_state = 0x00;
//温度值
uint_16 temp_T = 0;

int main(void)
{
    12e4:	b5b0      	push	{r4, r5, r7, lr}
    12e6:	b096      	sub	sp, #88	; 0x58
    12e8:	af00      	add	r7, sp, #0
E:\BOBO_KDS\KL25_DS18_GPRS\Debug/../08_Source/main.c:31
	//DS18B20定义的保存字符串数组
	char tempt1[20] ={"Temperature is "};
    12ea:	1c39      	adds	r1, r7, #0
    12ec:	3140      	adds	r1, #64	; 0x40
    12ee:	4a5d      	ldr	r2, [pc, #372]	; (1464 <main+0x180>)
    12f0:	1c0b      	adds	r3, r1, #0
    12f2:	ca31      	ldmia	r2!, {r0, r4, r5}
    12f4:	c331      	stmia	r3!, {r0, r4, r5}
    12f6:	6812      	ldr	r2, [r2, #0]
    12f8:	601a      	str	r2, [r3, #0]
    12fa:	2300      	movs	r3, #0
    12fc:	610b      	str	r3, [r1, #16]
E:\BOBO_KDS\KL25_DS18_GPRS\Debug/../08_Source/main.c:34

	//通过TCP协议连接服务器
	char Ip_Port[41] = {"AT+CIPSTART=\"TCP\",\"47.94.153.56\",8888"};
    12fe:	1c39      	adds	r1, r7, #0
    1300:	3114      	adds	r1, #20
    1302:	4a59      	ldr	r2, [pc, #356]	; (1468 <main+0x184>)
    1304:	1c0b      	adds	r3, r1, #0
    1306:	ca31      	ldmia	r2!, {r0, r4, r5}
    1308:	c331      	stmia	r3!, {r0, r4, r5}
    130a:	ca31      	ldmia	r2!, {r0, r4, r5}
    130c:	c331      	stmia	r3!, {r0, r4, r5}
    130e:	ca31      	ldmia	r2!, {r0, r4, r5}
    1310:	c331      	stmia	r3!, {r0, r4, r5}
    1312:	8812      	ldrh	r2, [r2, #0]
    1314:	801a      	strh	r2, [r3, #0]
    1316:	2326      	movs	r3, #38	; 0x26
    1318:	2200      	movs	r2, #0
    131a:	52ca      	strh	r2, [r1, r3]
    131c:	18cb      	adds	r3, r1, r3
    131e:	2200      	movs	r2, #0
    1320:	709a      	strb	r2, [r3, #2]
E:\BOBO_KDS\KL25_DS18_GPRS\Debug/../08_Source/main.c:37

	//发送Android的状态信息数据包(包头、编号1、灯灭、采集时间1min、温度值、温度值校验位、包尾)
	uint_8 Sender_Android[7] = {0xEE,0x01,0x00,0x04,0x00,0x00,0xFF};
    1322:	1c3a      	adds	r2, r7, #0
    1324:	320c      	adds	r2, #12
    1326:	4b51      	ldr	r3, [pc, #324]	; (146c <main+0x188>)
    1328:	1c11      	adds	r1, r2, #0
    132a:	1c1a      	adds	r2, r3, #0
    132c:	2307      	movs	r3, #7
    132e:	1c08      	adds	r0, r1, #0
    1330:	1c11      	adds	r1, r2, #0
    1332:	1c1a      	adds	r2, r3, #0
    1334:	f001 ff8e 	bl	3254 <memcpy>
E:\BOBO_KDS\KL25_DS18_GPRS\Debug/../08_Source/main.c:38
	uint_8 Sender_End[7] = {0x00};
    1338:	1d3b      	adds	r3, r7, #4
    133a:	2200      	movs	r2, #0
    133c:	601a      	str	r2, [r3, #0]
    133e:	2200      	movs	r2, #0
    1340:	809a      	strh	r2, [r3, #4]
    1342:	2200      	movs	r2, #0
    1344:	719a      	strb	r2, [r3, #6]
__disable_irq():
E:/BOBO_KDS/KL25_DS18_GPRS/02_CPU/core_cmFunc.h:344
  This function disables IRQ interrupts by setting the I-bit in the CPSR.
  Can only be executed in Privileged modes.
 */
__attribute__( ( always_inline ) ) __STATIC_INLINE void __disable_irq(void)
{
  __ASM volatile ("cpsid i" : : : "memory");
    1346:	b672      	cpsid	i
main():
E:\BOBO_KDS\KL25_DS18_GPRS\Debug/../08_Source/main.c:46
//	uint_8 Received_Test[5] = {0xEE,0x01,0x01,0x08,0xEF};
    //2. 关总中断
    DISABLE_INTERRUPTS;

    //3. 初始化外设模块
    light_init(LIGHT_BLUE, LIGHT_OFF);  //蓝灯初始化
    1348:	230a      	movs	r3, #10
    134a:	33ff      	adds	r3, #255	; 0xff
    134c:	1c18      	adds	r0, r3, #0
    134e:	2101      	movs	r1, #1
    1350:	f000 fb98 	bl	1a84 <light_init>
E:\BOBO_KDS\KL25_DS18_GPRS\Debug/../08_Source/main.c:47
    light_init(LIGHT_GREEN, LIGHT_OFF);  //绿灯初始化
    1354:	2389      	movs	r3, #137	; 0x89
    1356:	005b      	lsls	r3, r3, #1
    1358:	1c18      	adds	r0, r3, #0
    135a:	2101      	movs	r1, #1
    135c:	f000 fb92 	bl	1a84 <light_init>
E:\BOBO_KDS\KL25_DS18_GPRS\Debug/../08_Source/main.c:48
    light_init(LIGHT_RED, LIGHT_OFF);  //红灯初始化
    1360:	2314      	movs	r3, #20
    1362:	33ff      	adds	r3, #255	; 0xff
    1364:	1c18      	adds	r0, r3, #0
    1366:	2101      	movs	r1, #1
    1368:	f000 fb8c 	bl	1a84 <light_init>
E:\BOBO_KDS\KL25_DS18_GPRS\Debug/../08_Source/main.c:50

    uart_init(UART_0, 115200);    //初始化串口0，波特率为9600
    136c:	23e1      	movs	r3, #225	; 0xe1
    136e:	025b      	lsls	r3, r3, #9
    1370:	2000      	movs	r0, #0
    1372:	1c19      	adds	r1, r3, #0
    1374:	f001 f8ec 	bl	2550 <uart_init>
E:\BOBO_KDS\KL25_DS18_GPRS\Debug/../08_Source/main.c:51
    uart_init(UART_1, 115200);    //初始化串口1，波特率为115200
    1378:	23e1      	movs	r3, #225	; 0xe1
    137a:	025b      	lsls	r3, r3, #9
    137c:	2001      	movs	r0, #1
    137e:	1c19      	adds	r1, r3, #0
    1380:	f001 f8e6 	bl	2550 <uart_init>
E:\BOBO_KDS\KL25_DS18_GPRS\Debug/../08_Source/main.c:52
    uart_init(UART_2, 115200);    //初始化串口2，波特率为115200
    1384:	23e1      	movs	r3, #225	; 0xe1
    1386:	025b      	lsls	r3, r3, #9
    1388:	2002      	movs	r0, #2
    138a:	1c19      	adds	r1, r3, #0
    138c:	f001 f8e0 	bl	2550 <uart_init>
E:\BOBO_KDS\KL25_DS18_GPRS\Debug/../08_Source/main.c:56
    //uart_init(UART_Debug, 9600);    //初始化UART_Debug，波特率为9600
    /*DS18B20初始化
     * */
    ds18b20_Init();			//初始化DS18B20为GPIO口和输出
    1390:	f000 ff6e 	bl	2270 <ds18b20_Init>
E:\BOBO_KDS\KL25_DS18_GPRS\Debug/../08_Source/main.c:59
    /*OLED初始化
     * */
    OLED_Init();
    1394:	f000 fd38 	bl	1e08 <OLED_Init>
E:\BOBO_KDS\KL25_DS18_GPRS\Debug/../08_Source/main.c:65
    //tpm配置初始化
    //最多0xFFFF->16b，也就是65536，也就是说，3000*20=60000<65536是符合的！
    //延时10ms,也就是说每20ms中断一次
//    tpm_timer_init(TPM_2,3000,20);
    //延时10ms,也就是说每10ms中断一次
    tpm_timer_init(TPM_1,3000,10);
    1398:	4a35      	ldr	r2, [pc, #212]	; (1470 <main+0x18c>)
    139a:	4b36      	ldr	r3, [pc, #216]	; (1474 <main+0x190>)
    139c:	2001      	movs	r0, #1
    139e:	1c11      	adds	r1, r2, #0
    13a0:	1c1a      	adds	r2, r3, #0
    13a2:	f001 fc3d 	bl	2c20 <tpm_timer_init>
E:\BOBO_KDS\KL25_DS18_GPRS\Debug/../08_Source/main.c:68

    //5. 使能模块中断
    uart_enable_re_int(UART_0);   //使能串口0接收中断
    13a6:	2000      	movs	r0, #0
    13a8:	f001 fb60 	bl	2a6c <uart_enable_re_int>
E:\BOBO_KDS\KL25_DS18_GPRS\Debug/../08_Source/main.c:69
    uart_enable_re_int(UART_1);   //使能串口1接收中断
    13ac:	2001      	movs	r0, #1
    13ae:	f001 fb5d 	bl	2a6c <uart_enable_re_int>
E:\BOBO_KDS\KL25_DS18_GPRS\Debug/../08_Source/main.c:70
    uart_enable_re_int(UART_2);   //使能串口2接收中断
    13b2:	2002      	movs	r0, #2
    13b4:	f001 fb5a 	bl	2a6c <uart_enable_re_int>
E:\BOBO_KDS\KL25_DS18_GPRS\Debug/../08_Source/main.c:73

//    tpm_enable_int(TPM_2);        //使能TPM0中断
    tpm_enable_int(TPM_1);        //使能TPM1中断
    13b8:	2001      	movs	r0, #1
    13ba:	f001 fca9 	bl	2d10 <tpm_enable_int>
__enable_irq():
E:/BOBO_KDS/KL25_DS18_GPRS/02_CPU/core_cmFunc.h:333
  This function enables IRQ interrupts by clearing the I-bit in the CPSR.
  Can only be executed in Privileged modes.
 */
__attribute__( ( always_inline ) ) __STATIC_INLINE void __enable_irq(void)
{
  __ASM volatile ("cpsie i" : : : "memory");
    13be:	b662      	cpsie	i
main():
E:\BOBO_KDS\KL25_DS18_GPRS\Debug/../08_Source/main.c:84
    //delay_s(10);
	//主循环开始==================================================================
	for(;;)
	{
		//延时1s
		if(DelayS(1) == 1)
    13c0:	2001      	movs	r0, #1
    13c2:	f000 fbe3 	bl	1b8c <DelayS>
    13c6:	1c03      	adds	r3, r0, #0
    13c8:	2b01      	cmp	r3, #1
    13ca:	d104      	bne.n	13d6 <main+0xf2>
E:\BOBO_KDS\KL25_DS18_GPRS\Debug/../08_Source/main.c:87
		{
			//读取温度值，并显示在OLED屏上
			Read_Temperature(tempt1);
    13cc:	1c3b      	adds	r3, r7, #0
    13ce:	3340      	adds	r3, #64	; 0x40
    13d0:	1c18      	adds	r0, r3, #0
    13d2:	f000 f857 	bl	1484 <Read_Temperature>
E:\BOBO_KDS\KL25_DS18_GPRS\Debug/../08_Source/main.c:91
		}
//		Send_Message(Ip_Port,Sender_Android);
		//如果控制延时到点了，就执行下列函数
		if(Collection_time() == 1)
    13d6:	f000 f8c3 	bl	1560 <Collection_time>
    13da:	1c03      	adds	r3, r0, #0
    13dc:	2b01      	cmp	r3, #1
    13de:	d13d      	bne.n	145c <main+0x178>
E:\BOBO_KDS\KL25_DS18_GPRS\Debug/../08_Source/main.c:95
		{
			//处理Sender_Android数组到Sender_End数组进行数据打包
			uint_8 i;
			Sender_Android[2] = red_state;
    13e0:	4b25      	ldr	r3, [pc, #148]	; (1478 <main+0x194>)
    13e2:	781a      	ldrb	r2, [r3, #0]
    13e4:	1c3b      	adds	r3, r7, #0
    13e6:	330c      	adds	r3, #12
    13e8:	709a      	strb	r2, [r3, #2]
E:\BOBO_KDS\KL25_DS18_GPRS\Debug/../08_Source/main.c:96
			Sender_Android[3] = Control_Coltime;
    13ea:	4b24      	ldr	r3, [pc, #144]	; (147c <main+0x198>)
    13ec:	781a      	ldrb	r2, [r3, #0]
    13ee:	1c3b      	adds	r3, r7, #0
    13f0:	330c      	adds	r3, #12
    13f2:	70da      	strb	r2, [r3, #3]
E:\BOBO_KDS\KL25_DS18_GPRS\Debug/../08_Source/main.c:97
			Sender_Android[4] = (uint_8)(temp_T&0xFF);
    13f4:	4b22      	ldr	r3, [pc, #136]	; (1480 <main+0x19c>)
    13f6:	881b      	ldrh	r3, [r3, #0]
    13f8:	b2da      	uxtb	r2, r3
    13fa:	1c3b      	adds	r3, r7, #0
    13fc:	330c      	adds	r3, #12
    13fe:	711a      	strb	r2, [r3, #4]
E:\BOBO_KDS\KL25_DS18_GPRS\Debug/../08_Source/main.c:98
			Sender_Android[5] = Crc_8((uint_8)(temp_T&0xFF));
    1400:	4b1f      	ldr	r3, [pc, #124]	; (1480 <main+0x19c>)
    1402:	881b      	ldrh	r3, [r3, #0]
    1404:	b2db      	uxtb	r3, r3
    1406:	1c18      	adds	r0, r3, #0
    1408:	f000 f8d0 	bl	15ac <Crc_8>
    140c:	1c03      	adds	r3, r0, #0
    140e:	1c1a      	adds	r2, r3, #0
    1410:	1c3b      	adds	r3, r7, #0
    1412:	330c      	adds	r3, #12
    1414:	715a      	strb	r2, [r3, #5]
E:\BOBO_KDS\KL25_DS18_GPRS\Debug/../08_Source/main.c:99
			for(i=0; i<7; i++)
    1416:	1c3b      	adds	r3, r7, #0
    1418:	3357      	adds	r3, #87	; 0x57
    141a:	2200      	movs	r2, #0
    141c:	701a      	strb	r2, [r3, #0]
    141e:	e011      	b.n	1444 <main+0x160>
E:\BOBO_KDS\KL25_DS18_GPRS\Debug/../08_Source/main.c:101 (discriminator 2)
			{
				Sender_End[i] = (char)(Sender_Android[i]&0xFF);
    1420:	1c3b      	adds	r3, r7, #0
    1422:	3357      	adds	r3, #87	; 0x57
    1424:	781b      	ldrb	r3, [r3, #0]
    1426:	1c3a      	adds	r2, r7, #0
    1428:	3257      	adds	r2, #87	; 0x57
    142a:	7812      	ldrb	r2, [r2, #0]
    142c:	1c39      	adds	r1, r7, #0
    142e:	310c      	adds	r1, #12
    1430:	5c89      	ldrb	r1, [r1, r2]
    1432:	1d3a      	adds	r2, r7, #4
    1434:	54d1      	strb	r1, [r2, r3]
E:\BOBO_KDS\KL25_DS18_GPRS\Debug/../08_Source/main.c:99 (discriminator 2)
			uint_8 i;
			Sender_Android[2] = red_state;
			Sender_Android[3] = Control_Coltime;
			Sender_Android[4] = (uint_8)(temp_T&0xFF);
			Sender_Android[5] = Crc_8((uint_8)(temp_T&0xFF));
			for(i=0; i<7; i++)
    1436:	1c3b      	adds	r3, r7, #0
    1438:	3357      	adds	r3, #87	; 0x57
    143a:	781a      	ldrb	r2, [r3, #0]
    143c:	1c3b      	adds	r3, r7, #0
    143e:	3357      	adds	r3, #87	; 0x57
    1440:	3201      	adds	r2, #1
    1442:	701a      	strb	r2, [r3, #0]
E:\BOBO_KDS\KL25_DS18_GPRS\Debug/../08_Source/main.c:99 (discriminator 1)
    1444:	1c3b      	adds	r3, r7, #0
    1446:	3357      	adds	r3, #87	; 0x57
    1448:	781b      	ldrb	r3, [r3, #0]
    144a:	2b06      	cmp	r3, #6
    144c:	d9e8      	bls.n	1420 <main+0x13c>
E:\BOBO_KDS\KL25_DS18_GPRS\Debug/../08_Source/main.c:104
			{
				Sender_End[i] = (char)(Sender_Android[i]&0xFF);
			}
			//发送数据到服务器
			Send_Message(Ip_Port,Sender_End);
    144e:	1c3a      	adds	r2, r7, #0
    1450:	3214      	adds	r2, #20
    1452:	1d3b      	adds	r3, r7, #4
    1454:	1c10      	adds	r0, r2, #0
    1456:	1c19      	adds	r1, r3, #0
    1458:	f000 f862 	bl	1520 <Send_Message>
E:\BOBO_KDS\KL25_DS18_GPRS\Debug/../08_Source/main.c:108
//			Send_Message(Ip_Port,Sender_Android);
		}
		//android端控制程序
		Android_Control();
    145c:	f000 f8e4 	bl	1628 <Android_Control>
E:\BOBO_KDS\KL25_DS18_GPRS\Debug/../08_Source/main.c:113
//		//延时200ms
//		delay_ms(200);
//		uart_reN(UART_2,5,Received_Test);
		//以下加入用户程序--------------------------------------------------------
	}//主循环end_for
    1460:	e7ae      	b.n	13c0 <main+0xdc>
    1462:	46c0      	nop			; (mov r8, r8)
    1464:	000033a0 	.word	0x000033a0
    1468:	000033b4 	.word	0x000033b4
    146c:	000033e0 	.word	0x000033e0
    1470:	00000bb8 	.word	0x00000bb8
    1474:	41200000 	.word	0x41200000
    1478:	1ffff01e 	.word	0x1ffff01e
    147c:	1ffff000 	.word	0x1ffff000
    1480:	1ffff020 	.word	0x1ffff020

00001484 <Read_Temperature>:
Read_Temperature():
E:\BOBO_KDS\KL25_DS18_GPRS\Debug/../08_Source/main.c:121

//功能：将读取温度进行一个封装
//参数：无
//返回值：无
void Read_Temperature(char * tempt1)
{
    1484:	b580      	push	{r7, lr}
    1486:	b082      	sub	sp, #8
    1488:	af00      	add	r7, sp, #0
    148a:	6078      	str	r0, [r7, #4]
E:\BOBO_KDS\KL25_DS18_GPRS\Debug/../08_Source/main.c:122
	if(ds18b20_Read()){
    148c:	f000 ffe8 	bl	2460 <ds18b20_Read>
    1490:	1c03      	adds	r3, r0, #0
    1492:	2b00      	cmp	r3, #0
    1494:	d01d      	beq.n	14d2 <Read_Temperature+0x4e>
E:\BOBO_KDS\KL25_DS18_GPRS\Debug/../08_Source/main.c:123
		temp_T = Temperature;
    1496:	4b1f      	ldr	r3, [pc, #124]	; (1514 <Read_Temperature+0x90>)
    1498:	881b      	ldrh	r3, [r3, #0]
    149a:	b29a      	uxth	r2, r3
    149c:	4b1e      	ldr	r3, [pc, #120]	; (1518 <Read_Temperature+0x94>)
    149e:	801a      	strh	r2, [r3, #0]
E:\BOBO_KDS\KL25_DS18_GPRS\Debug/../08_Source/main.c:125
//		printf((char *)"温度是：%d `C\n",temp_T);
		OLED_P6x8Str(0,0,(uint_8 *)tempt1);
    14a0:	687b      	ldr	r3, [r7, #4]
    14a2:	2000      	movs	r0, #0
    14a4:	2100      	movs	r1, #0
    14a6:	1c1a      	adds	r2, r3, #0
    14a8:	f000 fd6a 	bl	1f80 <OLED_P6x8Str>
E:\BOBO_KDS\KL25_DS18_GPRS\Debug/../08_Source/main.c:126
		OLED_Print_Num(30,1,temp_T);
    14ac:	4b1a      	ldr	r3, [pc, #104]	; (1518 <Read_Temperature+0x94>)
    14ae:	881b      	ldrh	r3, [r3, #0]
    14b0:	201e      	movs	r0, #30
    14b2:	2101      	movs	r1, #1
    14b4:	1c1a      	adds	r2, r3, #0
    14b6:	f000 feab 	bl	2210 <OLED_Print_Num>
E:\BOBO_KDS\KL25_DS18_GPRS\Debug/../08_Source/main.c:127
		OLED_P8x16Str(70,1,(uint_8 *)"`C");
    14ba:	4b18      	ldr	r3, [pc, #96]	; (151c <Read_Temperature+0x98>)
    14bc:	2046      	movs	r0, #70	; 0x46
    14be:	2101      	movs	r1, #1
    14c0:	1c1a      	adds	r2, r3, #0
    14c2:	f000 fdcd 	bl	2060 <OLED_P8x16Str>
E:\BOBO_KDS\KL25_DS18_GPRS\Debug/../08_Source/main.c:131
//		//延时1s（通过TPM进行硬件延时）
//		delay_ms(1000);
		//翻转蓝灯
		light_change(LIGHT_BLUE);
    14c6:	230a      	movs	r3, #10
    14c8:	33ff      	adds	r3, #255	; 0xff
    14ca:	1c18      	adds	r0, r3, #0
    14cc:	f000 fb04 	bl	1ad8 <light_change>
    14d0:	e01c      	b.n	150c <Read_Temperature+0x88>
E:\BOBO_KDS\KL25_DS18_GPRS\Debug/../08_Source/main.c:134
	}
	else{
		temp_T = Temperature;
    14d2:	4b10      	ldr	r3, [pc, #64]	; (1514 <Read_Temperature+0x90>)
    14d4:	881b      	ldrh	r3, [r3, #0]
    14d6:	b29a      	uxth	r2, r3
    14d8:	4b0f      	ldr	r3, [pc, #60]	; (1518 <Read_Temperature+0x94>)
    14da:	801a      	strh	r2, [r3, #0]
E:\BOBO_KDS\KL25_DS18_GPRS\Debug/../08_Source/main.c:136
//		printf((char *)"温度是：-%d `C\n",temp_T);
		OLED_P6x8Str(0,0,(uint_8 *)tempt1);
    14dc:	687b      	ldr	r3, [r7, #4]
    14de:	2000      	movs	r0, #0
    14e0:	2100      	movs	r1, #0
    14e2:	1c1a      	adds	r2, r3, #0
    14e4:	f000 fd4c 	bl	1f80 <OLED_P6x8Str>
E:\BOBO_KDS\KL25_DS18_GPRS\Debug/../08_Source/main.c:137
		OLED_Print_Num(30,1,temp_T);
    14e8:	4b0b      	ldr	r3, [pc, #44]	; (1518 <Read_Temperature+0x94>)
    14ea:	881b      	ldrh	r3, [r3, #0]
    14ec:	201e      	movs	r0, #30
    14ee:	2101      	movs	r1, #1
    14f0:	1c1a      	adds	r2, r3, #0
    14f2:	f000 fe8d 	bl	2210 <OLED_Print_Num>
E:\BOBO_KDS\KL25_DS18_GPRS\Debug/../08_Source/main.c:138
		OLED_P8x16Str(70,1,(uint_8 *)"`C");
    14f6:	4b09      	ldr	r3, [pc, #36]	; (151c <Read_Temperature+0x98>)
    14f8:	2046      	movs	r0, #70	; 0x46
    14fa:	2101      	movs	r1, #1
    14fc:	1c1a      	adds	r2, r3, #0
    14fe:	f000 fdaf 	bl	2060 <OLED_P8x16Str>
E:\BOBO_KDS\KL25_DS18_GPRS\Debug/../08_Source/main.c:142
//		//延时1s（通过TPM进行硬件延时）
//		delay_ms(1000);
		//翻转蓝灯
		light_change(LIGHT_BLUE);
    1502:	230a      	movs	r3, #10
    1504:	33ff      	adds	r3, #255	; 0xff
    1506:	1c18      	adds	r0, r3, #0
    1508:	f000 fae6 	bl	1ad8 <light_change>
E:\BOBO_KDS\KL25_DS18_GPRS\Debug/../08_Source/main.c:144
	}
}
    150c:	46bd      	mov	sp, r7
    150e:	b002      	add	sp, #8
    1510:	bd80      	pop	{r7, pc}
    1512:	46c0      	nop			; (mov r8, r8)
    1514:	1ffff022 	.word	0x1ffff022
    1518:	1ffff020 	.word	0x1ffff020
    151c:	000033e8 	.word	0x000033e8

00001520 <Send_Message>:
Send_Message():
E:\BOBO_KDS\KL25_DS18_GPRS\Debug/../08_Source/main.c:149
//功能：通过GPRS发送数据到服务器
//参数：无
//返回值：无
void Send_Message(char * Ip_Port, uint_8 * Sender_AndroidEnd)
{
    1520:	b580      	push	{r7, lr}
    1522:	b082      	sub	sp, #8
    1524:	af00      	add	r7, sp, #0
    1526:	6078      	str	r0, [r7, #4]
    1528:	6039      	str	r1, [r7, #0]
E:\BOBO_KDS\KL25_DS18_GPRS\Debug/../08_Source/main.c:151
	//测试指令AT AT+CPIN?
	if(GPRS_init() == 1)
    152a:	f000 f983 	bl	1834 <GPRS_init>
    152e:	1c03      	adds	r3, r0, #0
    1530:	2b01      	cmp	r3, #1
    1532:	d112      	bne.n	155a <Send_Message+0x3a>
E:\BOBO_KDS\KL25_DS18_GPRS\Debug/../08_Source/main.c:154
	{
		//判断指令：AT+CIPSTATUS=0  AT+CGATT=1  AT+CGACT=1,1 AT+CIPSTART="TCP","47.94.153.56",8888
		if(GPRS_Judg_Conn(Ip_Port) == 1)
    1534:	687b      	ldr	r3, [r7, #4]
    1536:	1c18      	adds	r0, r3, #0
    1538:	f000 f9b2 	bl	18a0 <GPRS_Judg_Conn>
    153c:	1c03      	adds	r3, r0, #0
    153e:	2b01      	cmp	r3, #1
    1540:	d10b      	bne.n	155a <Send_Message+0x3a>
E:\BOBO_KDS\KL25_DS18_GPRS\Debug/../08_Source/main.c:157
		{
			//发送指令： AT+CIPSEND=1
			if(GPRS_Send_Data(Sender_AndroidEnd) == 1)
    1542:	683b      	ldr	r3, [r7, #0]
    1544:	1c18      	adds	r0, r3, #0
    1546:	f000 fa21 	bl	198c <GPRS_Send_Data>
    154a:	1c03      	adds	r3, r0, #0
    154c:	2b01      	cmp	r3, #1
    154e:	d104      	bne.n	155a <Send_Message+0x3a>
E:\BOBO_KDS\KL25_DS18_GPRS\Debug/../08_Source/main.c:159
			{
				light_change(LIGHT_GREEN);
    1550:	2389      	movs	r3, #137	; 0x89
    1552:	005b      	lsls	r3, r3, #1
    1554:	1c18      	adds	r0, r3, #0
    1556:	f000 fabf 	bl	1ad8 <light_change>
E:\BOBO_KDS\KL25_DS18_GPRS\Debug/../08_Source/main.c:164
			}
		}
	}

}
    155a:	46bd      	mov	sp, r7
    155c:	b002      	add	sp, #8
    155e:	bd80      	pop	{r7, pc}

00001560 <Collection_time>:
Collection_time():
E:\BOBO_KDS\KL25_DS18_GPRS\Debug/../08_Source/main.c:170

//功能：控制延时，进行数据采集和数据包的发送
//参数：无
//返回值：uint_8 flag  1 执行  0 不执行
uint_8  Collection_time()
{
    1560:	b580      	push	{r7, lr}
    1562:	b082      	sub	sp, #8
    1564:	af00      	add	r7, sp, #0
E:\BOBO_KDS\KL25_DS18_GPRS\Debug/../08_Source/main.c:171
	uint_8 flag = 0;
    1566:	1dfb      	adds	r3, r7, #7
    1568:	2200      	movs	r2, #0
    156a:	701a      	strb	r2, [r3, #0]
E:\BOBO_KDS\KL25_DS18_GPRS\Debug/../08_Source/main.c:172
	if(Control_Coltime == 0x04)
    156c:	4b0e      	ldr	r3, [pc, #56]	; (15a8 <Collection_time+0x48>)
    156e:	781b      	ldrb	r3, [r3, #0]
    1570:	2b04      	cmp	r3, #4
    1572:	d107      	bne.n	1584 <Collection_time+0x24>
E:\BOBO_KDS\KL25_DS18_GPRS\Debug/../08_Source/main.c:180
//		if(tpm_count >= 600)
//		{
//			tpm_count = 0;
//
//		}
		delayms(600);
    1574:	2396      	movs	r3, #150	; 0x96
    1576:	009b      	lsls	r3, r3, #2
    1578:	1c18      	adds	r0, r3, #0
    157a:	f000 faf3 	bl	1b64 <delayms>
E:\BOBO_KDS\KL25_DS18_GPRS\Debug/../08_Source/main.c:181
		flag = 1;
    157e:	1dfb      	adds	r3, r7, #7
    1580:	2201      	movs	r2, #1
    1582:	701a      	strb	r2, [r3, #0]
E:\BOBO_KDS\KL25_DS18_GPRS\Debug/../08_Source/main.c:184

	}
	if(Control_Coltime == 0x08)
    1584:	4b08      	ldr	r3, [pc, #32]	; (15a8 <Collection_time+0x48>)
    1586:	781b      	ldrb	r3, [r3, #0]
    1588:	2b08      	cmp	r3, #8
    158a:	d107      	bne.n	159c <Collection_time+0x3c>
E:\BOBO_KDS\KL25_DS18_GPRS\Debug/../08_Source/main.c:192
//		if(tpm_count >= 2000)
//		{
//
//			tpm_count = 0;
//		}
		delayms(2000);
    158c:	23fa      	movs	r3, #250	; 0xfa
    158e:	00db      	lsls	r3, r3, #3
    1590:	1c18      	adds	r0, r3, #0
    1592:	f000 fae7 	bl	1b64 <delayms>
E:\BOBO_KDS\KL25_DS18_GPRS\Debug/../08_Source/main.c:193
		flag = 1;
    1596:	1dfb      	adds	r3, r7, #7
    1598:	2201      	movs	r2, #1
    159a:	701a      	strb	r2, [r3, #0]
E:\BOBO_KDS\KL25_DS18_GPRS\Debug/../08_Source/main.c:195
	}
	return flag;
    159c:	1dfb      	adds	r3, r7, #7
    159e:	781b      	ldrb	r3, [r3, #0]
E:\BOBO_KDS\KL25_DS18_GPRS\Debug/../08_Source/main.c:196
}
    15a0:	1c18      	adds	r0, r3, #0
    15a2:	46bd      	mov	sp, r7
    15a4:	b002      	add	sp, #8
    15a6:	bd80      	pop	{r7, pc}
    15a8:	1ffff000 	.word	0x1ffff000

000015ac <Crc_8>:
Crc_8():
E:\BOBO_KDS\KL25_DS18_GPRS\Debug/../08_Source/main.c:204
//功能:计算数据的CRC校验码，输出8位校验码
//参数：uint_8 data
//返回值：uint_8 crcV
//已验证，没有问题 //检验是否正确就可以直接把数据通过CRC校验的方式再次进行验证看输出的校验码是否相等即可。
uint_8 Crc_8(uint_8 data)
{
    15ac:	b580      	push	{r7, lr}
    15ae:	b086      	sub	sp, #24
    15b0:	af00      	add	r7, sp, #0
    15b2:	1c02      	adds	r2, r0, #0
    15b4:	1dfb      	adds	r3, r7, #7
    15b6:	701a      	strb	r2, [r3, #0]
E:\BOBO_KDS\KL25_DS18_GPRS\Debug/../08_Source/main.c:205
   uint_8 crcM = 0x23;
    15b8:	1c3b      	adds	r3, r7, #0
    15ba:	330f      	adds	r3, #15
    15bc:	2223      	movs	r2, #35	; 0x23
    15be:	701a      	strb	r2, [r3, #0]
E:\BOBO_KDS\KL25_DS18_GPRS\Debug/../08_Source/main.c:206
   uint_8 crcV = 0x0;
    15c0:	1c3b      	adds	r3, r7, #0
    15c2:	3317      	adds	r3, #23
    15c4:	2200      	movs	r2, #0
    15c6:	701a      	strb	r2, [r3, #0]
E:\BOBO_KDS\KL25_DS18_GPRS\Debug/../08_Source/main.c:208
   int i;
   crcV = data;
    15c8:	1c3b      	adds	r3, r7, #0
    15ca:	3317      	adds	r3, #23
    15cc:	1dfa      	adds	r2, r7, #7
    15ce:	7812      	ldrb	r2, [r2, #0]
    15d0:	701a      	strb	r2, [r3, #0]
E:\BOBO_KDS\KL25_DS18_GPRS\Debug/../08_Source/main.c:209
   for (i =0; i<8; i++)
    15d2:	2300      	movs	r3, #0
    15d4:	613b      	str	r3, [r7, #16]
    15d6:	e01d      	b.n	1614 <Crc_8+0x68>
E:\BOBO_KDS\KL25_DS18_GPRS\Debug/../08_Source/main.c:211
   {
   		if ((crcV & 0x80) == 0x80)
    15d8:	1c3b      	adds	r3, r7, #0
    15da:	3317      	adds	r3, #23
    15dc:	781b      	ldrb	r3, [r3, #0]
    15de:	b25b      	sxtb	r3, r3
    15e0:	2b00      	cmp	r3, #0
    15e2:	da0d      	bge.n	1600 <Crc_8+0x54>
E:\BOBO_KDS\KL25_DS18_GPRS\Debug/../08_Source/main.c:213
   		{
            crcV = (uint_8)((crcV << 0x01) ^ crcM);
    15e4:	1c3b      	adds	r3, r7, #0
    15e6:	3317      	adds	r3, #23
    15e8:	781b      	ldrb	r3, [r3, #0]
    15ea:	005b      	lsls	r3, r3, #1
    15ec:	b2da      	uxtb	r2, r3
    15ee:	1c3b      	adds	r3, r7, #0
    15f0:	330f      	adds	r3, #15
    15f2:	781b      	ldrb	r3, [r3, #0]
    15f4:	4053      	eors	r3, r2
    15f6:	b2da      	uxtb	r2, r3
    15f8:	1c3b      	adds	r3, r7, #0
    15fa:	3317      	adds	r3, #23
    15fc:	701a      	strb	r2, [r3, #0]
    15fe:	e006      	b.n	160e <Crc_8+0x62>
E:\BOBO_KDS\KL25_DS18_GPRS\Debug/../08_Source/main.c:217
         }
         else
           {
              crcV = (uint_8)(crcV << 0x01);
    1600:	1c3a      	adds	r2, r7, #0
    1602:	3217      	adds	r2, #23
    1604:	1c3b      	adds	r3, r7, #0
    1606:	3317      	adds	r3, #23
    1608:	781b      	ldrb	r3, [r3, #0]
    160a:	18db      	adds	r3, r3, r3
    160c:	7013      	strb	r3, [r2, #0]
E:\BOBO_KDS\KL25_DS18_GPRS\Debug/../08_Source/main.c:209
{
   uint_8 crcM = 0x23;
   uint_8 crcV = 0x0;
   int i;
   crcV = data;
   for (i =0; i<8; i++)
    160e:	693b      	ldr	r3, [r7, #16]
    1610:	3301      	adds	r3, #1
    1612:	613b      	str	r3, [r7, #16]
E:\BOBO_KDS\KL25_DS18_GPRS\Debug/../08_Source/main.c:209 (discriminator 1)
    1614:	693b      	ldr	r3, [r7, #16]
    1616:	2b07      	cmp	r3, #7
    1618:	ddde      	ble.n	15d8 <Crc_8+0x2c>
E:\BOBO_KDS\KL25_DS18_GPRS\Debug/../08_Source/main.c:220
         else
           {
              crcV = (uint_8)(crcV << 0x01);
           }
    }
    return crcV;
    161a:	1c3b      	adds	r3, r7, #0
    161c:	3317      	adds	r3, #23
    161e:	781b      	ldrb	r3, [r3, #0]
E:\BOBO_KDS\KL25_DS18_GPRS\Debug/../08_Source/main.c:221
}
    1620:	1c18      	adds	r0, r3, #0
    1622:	46bd      	mov	sp, r7
    1624:	b006      	add	sp, #24
    1626:	bd80      	pop	{r7, pc}

00001628 <Android_Control>:
Android_Control():
E:\BOBO_KDS\KL25_DS18_GPRS\Debug/../08_Source/main.c:229

//功能：控制KL25的亮灭、采集时间等
//参数：无
//返回值：无
void Android_Control()
{
    1628:	b580      	push	{r7, lr}
    162a:	af00      	add	r7, sp, #0
E:\BOBO_KDS\KL25_DS18_GPRS\Debug/../08_Source/main.c:230
	if(Received_flag == 1)
    162c:	4b24      	ldr	r3, [pc, #144]	; (16c0 <Android_Control+0x98>)
    162e:	781b      	ldrb	r3, [r3, #0]
    1630:	2b01      	cmp	r3, #1
    1632:	d143      	bne.n	16bc <Android_Control+0x94>
E:\BOBO_KDS\KL25_DS18_GPRS\Debug/../08_Source/main.c:233
	{
		//发送服务器确认信息
		GPRS_Send_Data((uint_8 *)"FF");
    1634:	4b23      	ldr	r3, [pc, #140]	; (16c4 <Android_Control+0x9c>)
    1636:	1c18      	adds	r0, r3, #0
    1638:	f000 f9a8 	bl	198c <GPRS_Send_Data>
E:\BOBO_KDS\KL25_DS18_GPRS\Debug/../08_Source/main.c:234
		if(Date_Re[0] == 0x01)
    163c:	4b22      	ldr	r3, [pc, #136]	; (16c8 <Android_Control+0xa0>)
    163e:	781b      	ldrb	r3, [r3, #0]
    1640:	b25b      	sxtb	r3, r3
    1642:	2b01      	cmp	r3, #1
    1644:	d137      	bne.n	16b6 <Android_Control+0x8e>
E:\BOBO_KDS\KL25_DS18_GPRS\Debug/../08_Source/main.c:236
		{
			if(Date_Re[1] == 0x01)
    1646:	4b20      	ldr	r3, [pc, #128]	; (16c8 <Android_Control+0xa0>)
    1648:	785b      	ldrb	r3, [r3, #1]
    164a:	b25b      	sxtb	r3, r3
    164c:	2b01      	cmp	r3, #1
    164e:	d114      	bne.n	167a <Android_Control+0x52>
E:\BOBO_KDS\KL25_DS18_GPRS\Debug/../08_Source/main.c:238
			{
				light_control(LIGHT_GREEN,1);
    1650:	2389      	movs	r3, #137	; 0x89
    1652:	005b      	lsls	r3, r3, #1
    1654:	1c18      	adds	r0, r3, #0
    1656:	2101      	movs	r1, #1
    1658:	f000 fa2a 	bl	1ab0 <light_control>
E:\BOBO_KDS\KL25_DS18_GPRS\Debug/../08_Source/main.c:239
				light_control(LIGHT_BLUE,1);
    165c:	230a      	movs	r3, #10
    165e:	33ff      	adds	r3, #255	; 0xff
    1660:	1c18      	adds	r0, r3, #0
    1662:	2101      	movs	r1, #1
    1664:	f000 fa24 	bl	1ab0 <light_control>
E:\BOBO_KDS\KL25_DS18_GPRS\Debug/../08_Source/main.c:241
				//红灯亮
				light_control(LIGHT_RED,0);
    1668:	2314      	movs	r3, #20
    166a:	33ff      	adds	r3, #255	; 0xff
    166c:	1c18      	adds	r0, r3, #0
    166e:	2100      	movs	r1, #0
    1670:	f000 fa1e 	bl	1ab0 <light_control>
E:\BOBO_KDS\KL25_DS18_GPRS\Debug/../08_Source/main.c:242
				red_state = 0x01;
    1674:	4b15      	ldr	r3, [pc, #84]	; (16cc <Android_Control+0xa4>)
    1676:	2201      	movs	r2, #1
    1678:	701a      	strb	r2, [r3, #0]
E:\BOBO_KDS\KL25_DS18_GPRS\Debug/../08_Source/main.c:244
			}
			if(Date_Re[1] == 0x00)
    167a:	4b13      	ldr	r3, [pc, #76]	; (16c8 <Android_Control+0xa0>)
    167c:	785b      	ldrb	r3, [r3, #1]
    167e:	2b00      	cmp	r3, #0
    1680:	d114      	bne.n	16ac <Android_Control+0x84>
E:\BOBO_KDS\KL25_DS18_GPRS\Debug/../08_Source/main.c:246
			{
				light_control(LIGHT_GREEN,1);
    1682:	2389      	movs	r3, #137	; 0x89
    1684:	005b      	lsls	r3, r3, #1
    1686:	1c18      	adds	r0, r3, #0
    1688:	2101      	movs	r1, #1
    168a:	f000 fa11 	bl	1ab0 <light_control>
E:\BOBO_KDS\KL25_DS18_GPRS\Debug/../08_Source/main.c:247
				light_control(LIGHT_BLUE,1);
    168e:	230a      	movs	r3, #10
    1690:	33ff      	adds	r3, #255	; 0xff
    1692:	1c18      	adds	r0, r3, #0
    1694:	2101      	movs	r1, #1
    1696:	f000 fa0b 	bl	1ab0 <light_control>
E:\BOBO_KDS\KL25_DS18_GPRS\Debug/../08_Source/main.c:249
				//红灯灭
				light_control(LIGHT_RED,1);
    169a:	2314      	movs	r3, #20
    169c:	33ff      	adds	r3, #255	; 0xff
    169e:	1c18      	adds	r0, r3, #0
    16a0:	2101      	movs	r1, #1
    16a2:	f000 fa05 	bl	1ab0 <light_control>
E:\BOBO_KDS\KL25_DS18_GPRS\Debug/../08_Source/main.c:250
				red_state = 0x00;
    16a6:	4b09      	ldr	r3, [pc, #36]	; (16cc <Android_Control+0xa4>)
    16a8:	2200      	movs	r2, #0
    16aa:	701a      	strb	r2, [r3, #0]
E:\BOBO_KDS\KL25_DS18_GPRS\Debug/../08_Source/main.c:253
			}
			//直接将控制采集时间赋值给Control_Coltime
			Control_Coltime = Date_Re[2];
    16ac:	4b06      	ldr	r3, [pc, #24]	; (16c8 <Android_Control+0xa0>)
    16ae:	789b      	ldrb	r3, [r3, #2]
    16b0:	b2da      	uxtb	r2, r3
    16b2:	4b07      	ldr	r3, [pc, #28]	; (16d0 <Android_Control+0xa8>)
    16b4:	701a      	strb	r2, [r3, #0]
E:\BOBO_KDS\KL25_DS18_GPRS\Debug/../08_Source/main.c:256
		}
		//每次进入都要进行清零，赋初值
		Received_flag = 0;
    16b6:	4b02      	ldr	r3, [pc, #8]	; (16c0 <Android_Control+0x98>)
    16b8:	2200      	movs	r2, #0
    16ba:	701a      	strb	r2, [r3, #0]
E:\BOBO_KDS\KL25_DS18_GPRS\Debug/../08_Source/main.c:258
	}
}
    16bc:	46bd      	mov	sp, r7
    16be:	bd80      	pop	{r7, pc}
    16c0:	1ffff094 	.word	0x1ffff094
    16c4:	000033ec 	.word	0x000033ec
    16c8:	1ffff028 	.word	0x1ffff028
    16cc:	1ffff01e 	.word	0x1ffff01e
    16d0:	1ffff000 	.word	0x1ffff000

000016d4 <Send_AT_Command>:
Send_AT_Command():
E:\BOBO_KDS\KL25_DS18_GPRS\Debug/../07_Soft_Component/gprs/gprs.c:46

//功能：发送AT指令，设置比较的回发的字符串，设置等待时间等，同时用于判断AT指令是否发送成功
//参数：char *AT_command ：发送的AT指令, char *com_val ：设置比较的回发的字符串, uint_16 wait_time_MS:设置等待时间
//返回值：TRUE：发送成功，FALSE：发送失败
uint_8 Send_AT_Command(char *AT_command, char *com_val, uint_16 wait_time_Ms)
{
    16d4:	b580      	push	{r7, lr}
    16d6:	b086      	sub	sp, #24
    16d8:	af00      	add	r7, sp, #0
    16da:	60f8      	str	r0, [r7, #12]
    16dc:	60b9      	str	r1, [r7, #8]
    16de:	1dbb      	adds	r3, r7, #6
    16e0:	801a      	strh	r2, [r3, #0]
E:\BOBO_KDS\KL25_DS18_GPRS\Debug/../07_Soft_Component/gprs/gprs.c:47
	int i = 3;
    16e2:	2303      	movs	r3, #3
    16e4:	617b      	str	r3, [r7, #20]
E:\BOBO_KDS\KL25_DS18_GPRS\Debug/../07_Soft_Component/gprs/gprs.c:49
	//清空相应的缓冲区
	for(i=0; i<BUF_MAX; i++)
    16e6:	2300      	movs	r3, #0
    16e8:	617b      	str	r3, [r7, #20]
    16ea:	e007      	b.n	16fc <Send_AT_Command+0x28>
E:\BOBO_KDS\KL25_DS18_GPRS\Debug/../07_Soft_Component/gprs/gprs.c:51 (discriminator 2)
	{
		Data_Buf[i] = '\0';
    16ec:	4a1e      	ldr	r2, [pc, #120]	; (1768 <Send_AT_Command+0x94>)
    16ee:	697b      	ldr	r3, [r7, #20]
    16f0:	18d3      	adds	r3, r2, r3
    16f2:	2200      	movs	r2, #0
    16f4:	701a      	strb	r2, [r3, #0]
E:\BOBO_KDS\KL25_DS18_GPRS\Debug/../07_Soft_Component/gprs/gprs.c:49 (discriminator 2)
//返回值：TRUE：发送成功，FALSE：发送失败
uint_8 Send_AT_Command(char *AT_command, char *com_val, uint_16 wait_time_Ms)
{
	int i = 3;
	//清空相应的缓冲区
	for(i=0; i<BUF_MAX; i++)
    16f6:	697b      	ldr	r3, [r7, #20]
    16f8:	3301      	adds	r3, #1
    16fa:	617b      	str	r3, [r7, #20]
E:\BOBO_KDS\KL25_DS18_GPRS\Debug/../07_Soft_Component/gprs/gprs.c:49 (discriminator 1)
    16fc:	697b      	ldr	r3, [r7, #20]
    16fe:	2b63      	cmp	r3, #99	; 0x63
    1700:	ddf4      	ble.n	16ec <Send_AT_Command+0x18>
E:\BOBO_KDS\KL25_DS18_GPRS\Debug/../07_Soft_Component/gprs/gprs.c:56
		Data_Buf[i] = '\0';
	}
	//通过strcat函数合并AT_command传入的是一个固定长度的字符串如"AT"
//	strcat(AT_command,"\r\n");
	//通过UART2串口发送命令。
	uart_send_string(UART_2,AT_command);
    1702:	68fb      	ldr	r3, [r7, #12]
    1704:	2002      	movs	r0, #2
    1706:	1c19      	adds	r1, r3, #0
    1708:	f001 f90a 	bl	2920 <uart_send_string>
E:\BOBO_KDS\KL25_DS18_GPRS\Debug/../07_Soft_Component/gprs/gprs.c:58
	//延时wait_time_MS ms
	delayms(wait_time_Ms);
    170c:	1dbb      	adds	r3, r7, #6
    170e:	881b      	ldrh	r3, [r3, #0]
    1710:	1c18      	adds	r0, r3, #0
    1712:	f000 fa27 	bl	1b64 <delayms>
E:\BOBO_KDS\KL25_DS18_GPRS\Debug/../07_Soft_Component/gprs/gprs.c:60
	//判断返回值和uart2的接收缓冲区的字符串对比
	if(judge_right(com_val) == 1)
    1716:	68bb      	ldr	r3, [r7, #8]
    1718:	1c18      	adds	r0, r3, #0
    171a:	f000 f827 	bl	176c <judge_right>
    171e:	1c03      	adds	r3, r0, #0
    1720:	2b01      	cmp	r3, #1
    1722:	d101      	bne.n	1728 <Send_AT_Command+0x54>
E:\BOBO_KDS\KL25_DS18_GPRS\Debug/../07_Soft_Component/gprs/gprs.c:63
	{
		//则以为发送成功
		return TRUE;
    1724:	2301      	movs	r3, #1
    1726:	e01a      	b.n	175e <Send_AT_Command+0x8a>
E:\BOBO_KDS\KL25_DS18_GPRS\Debug/../07_Soft_Component/gprs/gprs.c:71
	else
	{
		while(1)
		{
			//发送AT指令
			send_Command(AT_command);
    1728:	68fb      	ldr	r3, [r7, #12]
    172a:	1c18      	adds	r0, r3, #0
    172c:	f000 f85e 	bl	17ec <send_Command>
E:\BOBO_KDS\KL25_DS18_GPRS\Debug/../07_Soft_Component/gprs/gprs.c:73
			//延时函数
			delayms(wait_time_Ms);
    1730:	1dbb      	adds	r3, r7, #6
    1732:	881b      	ldrh	r3, [r3, #0]
    1734:	1c18      	adds	r0, r3, #0
    1736:	f000 fa15 	bl	1b64 <delayms>
E:\BOBO_KDS\KL25_DS18_GPRS\Debug/../07_Soft_Component/gprs/gprs.c:75
			//判断返回值和uart2接收缓冲区的字符串进行对比
			if(judge_right(com_val) == 1)
    173a:	68bb      	ldr	r3, [r7, #8]
    173c:	1c18      	adds	r0, r3, #0
    173e:	f000 f815 	bl	176c <judge_right>
    1742:	1c03      	adds	r3, r0, #0
    1744:	2b01      	cmp	r3, #1
    1746:	d101      	bne.n	174c <Send_AT_Command+0x78>
E:\BOBO_KDS\KL25_DS18_GPRS\Debug/../07_Soft_Component/gprs/gprs.c:78
			{
				//发送成功
				return TRUE;
    1748:	2301      	movs	r3, #1
    174a:	e008      	b.n	175e <Send_AT_Command+0x8a>
E:\BOBO_KDS\KL25_DS18_GPRS\Debug/../07_Soft_Component/gprs/gprs.c:80
			}
			else if(i < 0)
    174c:	697b      	ldr	r3, [r7, #20]
    174e:	2b00      	cmp	r3, #0
    1750:	da01      	bge.n	1756 <Send_AT_Command+0x82>
E:\BOBO_KDS\KL25_DS18_GPRS\Debug/../07_Soft_Component/gprs/gprs.c:82
			{
				return FALSE;
    1752:	2300      	movs	r3, #0
    1754:	e003      	b.n	175e <Send_AT_Command+0x8a>
E:\BOBO_KDS\KL25_DS18_GPRS\Debug/../07_Soft_Component/gprs/gprs.c:84
			}
			i--;
    1756:	697b      	ldr	r3, [r7, #20]
    1758:	3b01      	subs	r3, #1
    175a:	617b      	str	r3, [r7, #20]
E:\BOBO_KDS\KL25_DS18_GPRS\Debug/../07_Soft_Component/gprs/gprs.c:85
		}
    175c:	e7e4      	b.n	1728 <Send_AT_Command+0x54>
E:\BOBO_KDS\KL25_DS18_GPRS\Debug/../07_Soft_Component/gprs/gprs.c:87
	}
}
    175e:	1c18      	adds	r0, r3, #0
    1760:	46bd      	mov	sp, r7
    1762:	b006      	add	sp, #24
    1764:	bd80      	pop	{r7, pc}
    1766:	46c0      	nop			; (mov r8, r8)
    1768:	1ffff02c 	.word	0x1ffff02c

0000176c <judge_right>:
judge_right():
E:\BOBO_KDS\KL25_DS18_GPRS\Debug/../07_Soft_Component/gprs/gprs.c:105
//	{
//		return FALSE;
//	}
//}
uint_8 judge_right(char * com_val)
{
    176c:	b590      	push	{r4, r7, lr}
    176e:	b087      	sub	sp, #28
    1770:	af00      	add	r7, sp, #0
    1772:	6078      	str	r0, [r7, #4]
E:\BOBO_KDS\KL25_DS18_GPRS\Debug/../07_Soft_Component/gprs/gprs.c:108
	uint_8 i ;
	uint_8 rval;
	char * temp = Data_Buf;
    1774:	4b1c      	ldr	r3, [pc, #112]	; (17e8 <judge_right+0x7c>)
    1776:	613b      	str	r3, [r7, #16]
E:\BOBO_KDS\KL25_DS18_GPRS\Debug/../07_Soft_Component/gprs/gprs.c:109
	for (i = 0; i < BUF_MAX - strlen(com_val); i++) {
    1778:	1c3b      	adds	r3, r7, #0
    177a:	3317      	adds	r3, #23
    177c:	2200      	movs	r2, #0
    177e:	701a      	strb	r2, [r3, #0]
    1780:	e021      	b.n	17c6 <judge_right+0x5a>
E:\BOBO_KDS\KL25_DS18_GPRS\Debug/../07_Soft_Component/gprs/gprs.c:110
		rval = strncmp(temp + i, com_val, strlen(com_val));
    1782:	1c3b      	adds	r3, r7, #0
    1784:	3317      	adds	r3, #23
    1786:	781b      	ldrb	r3, [r3, #0]
    1788:	693a      	ldr	r2, [r7, #16]
    178a:	18d4      	adds	r4, r2, r3
    178c:	687b      	ldr	r3, [r7, #4]
    178e:	1c18      	adds	r0, r3, #0
    1790:	f001 fda2 	bl	32d8 <strlen>
    1794:	1c03      	adds	r3, r0, #0
    1796:	687a      	ldr	r2, [r7, #4]
    1798:	1c20      	adds	r0, r4, #0
    179a:	1c11      	adds	r1, r2, #0
    179c:	1c1a      	adds	r2, r3, #0
    179e:	f001 fda3 	bl	32e8 <strncmp>
    17a2:	1c02      	adds	r2, r0, #0
    17a4:	1c3b      	adds	r3, r7, #0
    17a6:	330f      	adds	r3, #15
    17a8:	701a      	strb	r2, [r3, #0]
E:\BOBO_KDS\KL25_DS18_GPRS\Debug/../07_Soft_Component/gprs/gprs.c:111
		if (!rval)
    17aa:	1c3b      	adds	r3, r7, #0
    17ac:	330f      	adds	r3, #15
    17ae:	781b      	ldrb	r3, [r3, #0]
    17b0:	2b00      	cmp	r3, #0
    17b2:	d101      	bne.n	17b8 <judge_right+0x4c>
E:\BOBO_KDS\KL25_DS18_GPRS\Debug/../07_Soft_Component/gprs/gprs.c:113
		{
			return TRUE;
    17b4:	2301      	movs	r3, #1
    17b6:	e013      	b.n	17e0 <judge_right+0x74>
E:\BOBO_KDS\KL25_DS18_GPRS\Debug/../07_Soft_Component/gprs/gprs.c:109
uint_8 judge_right(char * com_val)
{
	uint_8 i ;
	uint_8 rval;
	char * temp = Data_Buf;
	for (i = 0; i < BUF_MAX - strlen(com_val); i++) {
    17b8:	1c3b      	adds	r3, r7, #0
    17ba:	3317      	adds	r3, #23
    17bc:	781a      	ldrb	r2, [r3, #0]
    17be:	1c3b      	adds	r3, r7, #0
    17c0:	3317      	adds	r3, #23
    17c2:	3201      	adds	r2, #1
    17c4:	701a      	strb	r2, [r3, #0]
E:\BOBO_KDS\KL25_DS18_GPRS\Debug/../07_Soft_Component/gprs/gprs.c:109 (discriminator 1)
    17c6:	1c3b      	adds	r3, r7, #0
    17c8:	3317      	adds	r3, #23
    17ca:	781c      	ldrb	r4, [r3, #0]
    17cc:	687b      	ldr	r3, [r7, #4]
    17ce:	1c18      	adds	r0, r3, #0
    17d0:	f001 fd82 	bl	32d8 <strlen>
    17d4:	1c03      	adds	r3, r0, #0
    17d6:	2264      	movs	r2, #100	; 0x64
    17d8:	1ad3      	subs	r3, r2, r3
    17da:	429c      	cmp	r4, r3
    17dc:	d3d1      	bcc.n	1782 <judge_right+0x16>
E:\BOBO_KDS\KL25_DS18_GPRS\Debug/../07_Soft_Component/gprs/gprs.c:116
		if (!rval)
		{
			return TRUE;
		}
	}
	return FALSE;
    17de:	2300      	movs	r3, #0
E:\BOBO_KDS\KL25_DS18_GPRS\Debug/../07_Soft_Component/gprs/gprs.c:117
}
    17e0:	1c18      	adds	r0, r3, #0
    17e2:	46bd      	mov	sp, r7
    17e4:	b007      	add	sp, #28
    17e6:	bd90      	pop	{r4, r7, pc}
    17e8:	1ffff02c 	.word	0x1ffff02c

000017ec <send_Command>:
send_Command():
E:\BOBO_KDS\KL25_DS18_GPRS\Debug/../07_Soft_Component/gprs/gprs.c:183

//功能：发送指令，加入\r\n，并且清除了相关的缓冲区
//参数：char *AT_command
//返回值：无
void send_Command(char *AT_command)
{
    17ec:	b580      	push	{r7, lr}
    17ee:	b084      	sub	sp, #16
    17f0:	af00      	add	r7, sp, #0
    17f2:	6078      	str	r0, [r7, #4]
E:\BOBO_KDS\KL25_DS18_GPRS\Debug/../07_Soft_Component/gprs/gprs.c:186
	int i;
	//清空相应的缓冲区
	for(i=0; i<BUF_MAX; i++)
    17f4:	2300      	movs	r3, #0
    17f6:	60fb      	str	r3, [r7, #12]
    17f8:	e007      	b.n	180a <send_Command+0x1e>
E:\BOBO_KDS\KL25_DS18_GPRS\Debug/../07_Soft_Component/gprs/gprs.c:188 (discriminator 2)
	{
		Data_Buf[i] = '\0';
    17fa:	4a0c      	ldr	r2, [pc, #48]	; (182c <send_Command+0x40>)
    17fc:	68fb      	ldr	r3, [r7, #12]
    17fe:	18d3      	adds	r3, r2, r3
    1800:	2200      	movs	r2, #0
    1802:	701a      	strb	r2, [r3, #0]
E:\BOBO_KDS\KL25_DS18_GPRS\Debug/../07_Soft_Component/gprs/gprs.c:186 (discriminator 2)
//返回值：无
void send_Command(char *AT_command)
{
	int i;
	//清空相应的缓冲区
	for(i=0; i<BUF_MAX; i++)
    1804:	68fb      	ldr	r3, [r7, #12]
    1806:	3301      	adds	r3, #1
    1808:	60fb      	str	r3, [r7, #12]
E:\BOBO_KDS\KL25_DS18_GPRS\Debug/../07_Soft_Component/gprs/gprs.c:186 (discriminator 1)
    180a:	68fb      	ldr	r3, [r7, #12]
    180c:	2b63      	cmp	r3, #99	; 0x63
    180e:	ddf4      	ble.n	17fa <send_Command+0xe>
E:\BOBO_KDS\KL25_DS18_GPRS\Debug/../07_Soft_Component/gprs/gprs.c:193
		Data_Buf[i] = '\0';
	}
	//通过strcat函数合并AT_command传入的是一个固定长度的字符串如"AT"
//	strcat(AT_command,"\r\n");
	//通过UART2串口发送命令。
	uart_send_string(UART_2,AT_command);
    1810:	687b      	ldr	r3, [r7, #4]
    1812:	2002      	movs	r0, #2
    1814:	1c19      	adds	r1, r3, #0
    1816:	f001 f883 	bl	2920 <uart_send_string>
E:\BOBO_KDS\KL25_DS18_GPRS\Debug/../07_Soft_Component/gprs/gprs.c:194
	uart_send_string(UART_2,"\r\n");
    181a:	4b05      	ldr	r3, [pc, #20]	; (1830 <send_Command+0x44>)
    181c:	2002      	movs	r0, #2
    181e:	1c19      	adds	r1, r3, #0
    1820:	f001 f87e 	bl	2920 <uart_send_string>
E:\BOBO_KDS\KL25_DS18_GPRS\Debug/../07_Soft_Component/gprs/gprs.c:195
}
    1824:	46bd      	mov	sp, r7
    1826:	b004      	add	sp, #16
    1828:	bd80      	pop	{r7, pc}
    182a:	46c0      	nop			; (mov r8, r8)
    182c:	1ffff02c 	.word	0x1ffff02c
    1830:	000033f0 	.word	0x000033f0

00001834 <GPRS_init>:
GPRS_init():
E:\BOBO_KDS\KL25_DS18_GPRS\Debug/../07_Soft_Component/gprs/gprs.c:203
//==================================================GPRS外部使用函数======================================
//功能：测试相关一些基础命令，进行连接（AT测试，查询卡是否插好）
//参数：void
//返回值：uint_8 测试程序 测试成功 返回1 失败返回 0
int_8 GPRS_init(void)
{
    1834:	b580      	push	{r7, lr}
    1836:	b082      	sub	sp, #8
    1838:	af00      	add	r7, sp, #0
E:\BOBO_KDS\KL25_DS18_GPRS\Debug/../07_Soft_Component/gprs/gprs.c:204
	int_8 flag = 0;
    183a:	1dfb      	adds	r3, r7, #7
    183c:	2200      	movs	r2, #0
    183e:	701a      	strb	r2, [r3, #0]
E:\BOBO_KDS\KL25_DS18_GPRS\Debug/../07_Soft_Component/gprs/gprs.c:206
	//发送AT指令，测试是否有回发
	if(Send_AT_Command("AT","OK",5) == 1)
    1840:	4a13      	ldr	r2, [pc, #76]	; (1890 <GPRS_init+0x5c>)
    1842:	4b14      	ldr	r3, [pc, #80]	; (1894 <GPRS_init+0x60>)
    1844:	1c10      	adds	r0, r2, #0
    1846:	1c19      	adds	r1, r3, #0
    1848:	2205      	movs	r2, #5
    184a:	f7ff ff43 	bl	16d4 <Send_AT_Command>
    184e:	1c03      	adds	r3, r0, #0
    1850:	2b01      	cmp	r3, #1
    1852:	d111      	bne.n	1878 <GPRS_init+0x44>
E:\BOBO_KDS\KL25_DS18_GPRS\Debug/../07_Soft_Component/gprs/gprs.c:209
	{
		//发送AT+CPIN?是否卡插好
		if(Send_AT_Command("AT+CPIN?","READY",15) == 1)
    1854:	4a10      	ldr	r2, [pc, #64]	; (1898 <GPRS_init+0x64>)
    1856:	4b11      	ldr	r3, [pc, #68]	; (189c <GPRS_init+0x68>)
    1858:	1c10      	adds	r0, r2, #0
    185a:	1c19      	adds	r1, r3, #0
    185c:	220f      	movs	r2, #15
    185e:	f7ff ff39 	bl	16d4 <Send_AT_Command>
    1862:	1c03      	adds	r3, r0, #0
    1864:	2b01      	cmp	r3, #1
    1866:	d103      	bne.n	1870 <GPRS_init+0x3c>
E:\BOBO_KDS\KL25_DS18_GPRS\Debug/../07_Soft_Component/gprs/gprs.c:212
		{
			//测试成功标志位
			flag = TEST_OK;
    1868:	1dfb      	adds	r3, r7, #7
    186a:	2201      	movs	r2, #1
    186c:	701a      	strb	r2, [r3, #0]
E:\BOBO_KDS\KL25_DS18_GPRS\Debug/../07_Soft_Component/gprs/gprs.c:213
			goto end;
    186e:	e007      	b.n	1880 <GPRS_init+0x4c>
E:\BOBO_KDS\KL25_DS18_GPRS\Debug/../07_Soft_Component/gprs/gprs.c:218
		}
		else
		{
			//返回-2 没有准备好标志位
			flag = NO_SIM_CARD_ERROR;
    1870:	1dfb      	adds	r3, r7, #7
    1872:	22fe      	movs	r2, #254	; 0xfe
    1874:	701a      	strb	r2, [r3, #0]
E:\BOBO_KDS\KL25_DS18_GPRS\Debug/../07_Soft_Component/gprs/gprs.c:219
			goto end;
    1876:	e003      	b.n	1880 <GPRS_init+0x4c>
E:\BOBO_KDS\KL25_DS18_GPRS\Debug/../07_Soft_Component/gprs/gprs.c:225
		}
	}
	else
	{
//		返回-22 AT测试没有准备好标志位
		flag = AT_ERROR;
    1878:	1dfb      	adds	r3, r7, #7
    187a:	22ea      	movs	r2, #234	; 0xea
    187c:	701a      	strb	r2, [r3, #0]
E:\BOBO_KDS\KL25_DS18_GPRS\Debug/../07_Soft_Component/gprs/gprs.c:226
		goto end;
    187e:	46c0      	nop			; (mov r8, r8)
E:\BOBO_KDS\KL25_DS18_GPRS\Debug/../07_Soft_Component/gprs/gprs.c:229
	}
	//返回flag标志
	end: return flag;
    1880:	1dfb      	adds	r3, r7, #7
    1882:	781b      	ldrb	r3, [r3, #0]
    1884:	b25b      	sxtb	r3, r3
E:\BOBO_KDS\KL25_DS18_GPRS\Debug/../07_Soft_Component/gprs/gprs.c:230
}
    1886:	1c18      	adds	r0, r3, #0
    1888:	46bd      	mov	sp, r7
    188a:	b002      	add	sp, #8
    188c:	bd80      	pop	{r7, pc}
    188e:	46c0      	nop			; (mov r8, r8)
    1890:	000033f4 	.word	0x000033f4
    1894:	000033f8 	.word	0x000033f8
    1898:	000033fc 	.word	0x000033fc
    189c:	00003408 	.word	0x00003408

000018a0 <GPRS_Judg_Conn>:
GPRS_Judg_Conn():
E:\BOBO_KDS\KL25_DS18_GPRS\Debug/../07_Soft_Component/gprs/gprs.c:236

//功能：主要是判断是否连接成功？？
//参数：char *Server_IP_Port
//返回值：int_8 1，连接成功 ，小于0 表示连接失败
uint_8 GPRS_Judg_Conn(char *Server_IP_Port)
{
    18a0:	b580      	push	{r7, lr}
    18a2:	b084      	sub	sp, #16
    18a4:	af00      	add	r7, sp, #0
    18a6:	6078      	str	r0, [r7, #4]
E:\BOBO_KDS\KL25_DS18_GPRS\Debug/../07_Soft_Component/gprs/gprs.c:237
	uint_8 flag  = 0;
    18a8:	1c3b      	adds	r3, r7, #0
    18aa:	330f      	adds	r3, #15
    18ac:	2200      	movs	r2, #0
    18ae:	701a      	strb	r2, [r3, #0]
E:\BOBO_KDS\KL25_DS18_GPRS\Debug/../07_Soft_Component/gprs/gprs.c:239
	//查询GPRS的状态是否连接成功 200ms
	if(Send_AT_Command("AT+CIPSTATUS=0","CONNECT OK",15) == 1)
    18b0:	4a31      	ldr	r2, [pc, #196]	; (1978 <GPRS_Judg_Conn+0xd8>)
    18b2:	4b32      	ldr	r3, [pc, #200]	; (197c <GPRS_Judg_Conn+0xdc>)
    18b4:	1c10      	adds	r0, r2, #0
    18b6:	1c19      	adds	r1, r3, #0
    18b8:	220f      	movs	r2, #15
    18ba:	f7ff ff0b 	bl	16d4 <Send_AT_Command>
    18be:	1c03      	adds	r3, r0, #0
    18c0:	2b01      	cmp	r3, #1
    18c2:	d104      	bne.n	18ce <GPRS_Judg_Conn+0x2e>
E:\BOBO_KDS\KL25_DS18_GPRS\Debug/../07_Soft_Component/gprs/gprs.c:242
	{
		//连接成功标志位
		flag = CONNEXCT_OK;
    18c4:	1c3b      	adds	r3, r7, #0
    18c6:	330f      	adds	r3, #15
    18c8:	2201      	movs	r2, #1
    18ca:	701a      	strb	r2, [r3, #0]
E:\BOBO_KDS\KL25_DS18_GPRS\Debug/../07_Soft_Component/gprs/gprs.c:243
		goto end;
    18cc:	e04c      	b.n	1968 <GPRS_Judg_Conn+0xc8>
E:\BOBO_KDS\KL25_DS18_GPRS\Debug/../07_Soft_Component/gprs/gprs.c:246
	}
	//查询GPRS连接状态为 IP CLOSE 状态，，可以直接进行连接进行，就可以直接传输数据
	else if(Send_AT_Command("AT+CIPSTATUS=0","IP INITIAL",15) == 1)
    18ce:	4a2a      	ldr	r2, [pc, #168]	; (1978 <GPRS_Judg_Conn+0xd8>)
    18d0:	4b2b      	ldr	r3, [pc, #172]	; (1980 <GPRS_Judg_Conn+0xe0>)
    18d2:	1c10      	adds	r0, r2, #0
    18d4:	1c19      	adds	r1, r3, #0
    18d6:	220f      	movs	r2, #15
    18d8:	f7ff fefc 	bl	16d4 <Send_AT_Command>
    18dc:	1c03      	adds	r3, r0, #0
    18de:	2b01      	cmp	r3, #1
    18e0:	d110      	bne.n	1904 <GPRS_Judg_Conn+0x64>
E:\BOBO_KDS\KL25_DS18_GPRS\Debug/../07_Soft_Component/gprs/gprs.c:249
	{
		//如果配置GPRS返回值为1，则表示成功连接
		if(GPRS_Config(Server_IP_Port) == 1)
    18e2:	687b      	ldr	r3, [r7, #4]
    18e4:	1c18      	adds	r0, r3, #0
    18e6:	f000 f883 	bl	19f0 <GPRS_Config>
    18ea:	1c03      	adds	r3, r0, #0
    18ec:	2b01      	cmp	r3, #1
    18ee:	d104      	bne.n	18fa <GPRS_Judg_Conn+0x5a>
E:\BOBO_KDS\KL25_DS18_GPRS\Debug/../07_Soft_Component/gprs/gprs.c:252
		{
			//连接成功标志位
			flag = CONNEXCT_OK;
    18f0:	1c3b      	adds	r3, r7, #0
    18f2:	330f      	adds	r3, #15
    18f4:	2201      	movs	r2, #1
    18f6:	701a      	strb	r2, [r3, #0]
E:\BOBO_KDS\KL25_DS18_GPRS\Debug/../07_Soft_Component/gprs/gprs.c:253
			goto end;
    18f8:	e036      	b.n	1968 <GPRS_Judg_Conn+0xc8>
E:\BOBO_KDS\KL25_DS18_GPRS\Debug/../07_Soft_Component/gprs/gprs.c:260
		//配置小于0 ，则产生错误，可以进行查看那个错误//这边还是继续运行两次
//		else if(GPRS_Config(Server_IP_Port) < 0)
		else
		{
			//连接失败标志位
			flag = DIS_CONNECT;
    18fa:	1c3b      	adds	r3, r7, #0
    18fc:	330f      	adds	r3, #15
    18fe:	2200      	movs	r2, #0
    1900:	701a      	strb	r2, [r3, #0]
E:\BOBO_KDS\KL25_DS18_GPRS\Debug/../07_Soft_Component/gprs/gprs.c:261
			goto end;
    1902:	e031      	b.n	1968 <GPRS_Judg_Conn+0xc8>
E:\BOBO_KDS\KL25_DS18_GPRS\Debug/../07_Soft_Component/gprs/gprs.c:264
		}
	}
	else if(Send_AT_Command("AT+CIPSTATUS=0","IP GPRSACT",15) == 1)
    1904:	4a1c      	ldr	r2, [pc, #112]	; (1978 <GPRS_Judg_Conn+0xd8>)
    1906:	4b1f      	ldr	r3, [pc, #124]	; (1984 <GPRS_Judg_Conn+0xe4>)
    1908:	1c10      	adds	r0, r2, #0
    190a:	1c19      	adds	r1, r3, #0
    190c:	220f      	movs	r2, #15
    190e:	f7ff fee1 	bl	16d4 <Send_AT_Command>
    1912:	1c03      	adds	r3, r0, #0
    1914:	2b01      	cmp	r3, #1
    1916:	d10e      	bne.n	1936 <GPRS_Judg_Conn+0x96>
E:\BOBO_KDS\KL25_DS18_GPRS\Debug/../07_Soft_Component/gprs/gprs.c:266
	{
		if(Send_AT_Command(Server_IP_Port,"CONNECT OK",30) == 1)
    1918:	687a      	ldr	r2, [r7, #4]
    191a:	4b18      	ldr	r3, [pc, #96]	; (197c <GPRS_Judg_Conn+0xdc>)
    191c:	1c10      	adds	r0, r2, #0
    191e:	1c19      	adds	r1, r3, #0
    1920:	221e      	movs	r2, #30
    1922:	f7ff fed7 	bl	16d4 <Send_AT_Command>
    1926:	1c03      	adds	r3, r0, #0
    1928:	2b01      	cmp	r3, #1
    192a:	d11d      	bne.n	1968 <GPRS_Judg_Conn+0xc8>
E:\BOBO_KDS\KL25_DS18_GPRS\Debug/../07_Soft_Component/gprs/gprs.c:269
		{
				//连接成功标志位
				flag = CONNEXCT_OK;
    192c:	1c3b      	adds	r3, r7, #0
    192e:	330f      	adds	r3, #15
    1930:	2201      	movs	r2, #1
    1932:	701a      	strb	r2, [r3, #0]
E:\BOBO_KDS\KL25_DS18_GPRS\Debug/../07_Soft_Component/gprs/gprs.c:270
				goto end;
    1934:	e018      	b.n	1968 <GPRS_Judg_Conn+0xc8>
E:\BOBO_KDS\KL25_DS18_GPRS\Debug/../07_Soft_Component/gprs/gprs.c:274
		}
	}
	//执行对附着->激活->连接的进一步在操作
	else if(Send_AT_Command("AT+CIPSTATUS=0","IP CLOSE",15) == 1)
    1936:	4a10      	ldr	r2, [pc, #64]	; (1978 <GPRS_Judg_Conn+0xd8>)
    1938:	4b13      	ldr	r3, [pc, #76]	; (1988 <GPRS_Judg_Conn+0xe8>)
    193a:	1c10      	adds	r0, r2, #0
    193c:	1c19      	adds	r1, r3, #0
    193e:	220f      	movs	r2, #15
    1940:	f7ff fec8 	bl	16d4 <Send_AT_Command>
    1944:	1c03      	adds	r3, r0, #0
    1946:	2b01      	cmp	r3, #1
    1948:	d10e      	bne.n	1968 <GPRS_Judg_Conn+0xc8>
E:\BOBO_KDS\KL25_DS18_GPRS\Debug/../07_Soft_Component/gprs/gprs.c:276
	{
		if(Send_AT_Command(Server_IP_Port,"CONNECT OK",30) == 1)
    194a:	687a      	ldr	r2, [r7, #4]
    194c:	4b0b      	ldr	r3, [pc, #44]	; (197c <GPRS_Judg_Conn+0xdc>)
    194e:	1c10      	adds	r0, r2, #0
    1950:	1c19      	adds	r1, r3, #0
    1952:	221e      	movs	r2, #30
    1954:	f7ff febe 	bl	16d4 <Send_AT_Command>
    1958:	1c03      	adds	r3, r0, #0
    195a:	2b01      	cmp	r3, #1
    195c:	d104      	bne.n	1968 <GPRS_Judg_Conn+0xc8>
E:\BOBO_KDS\KL25_DS18_GPRS\Debug/../07_Soft_Component/gprs/gprs.c:279
		{
				//连接成功标志位
				flag = CONNEXCT_OK;
    195e:	1c3b      	adds	r3, r7, #0
    1960:	330f      	adds	r3, #15
    1962:	2201      	movs	r2, #1
    1964:	701a      	strb	r2, [r3, #0]
E:\BOBO_KDS\KL25_DS18_GPRS\Debug/../07_Soft_Component/gprs/gprs.c:280
				goto end;
    1966:	46c0      	nop			; (mov r8, r8)
E:\BOBO_KDS\KL25_DS18_GPRS\Debug/../07_Soft_Component/gprs/gprs.c:283
		}
	}
	end:return flag;
    1968:	1c3b      	adds	r3, r7, #0
    196a:	330f      	adds	r3, #15
    196c:	781b      	ldrb	r3, [r3, #0]
E:\BOBO_KDS\KL25_DS18_GPRS\Debug/../07_Soft_Component/gprs/gprs.c:284
}
    196e:	1c18      	adds	r0, r3, #0
    1970:	46bd      	mov	sp, r7
    1972:	b004      	add	sp, #16
    1974:	bd80      	pop	{r7, pc}
    1976:	46c0      	nop			; (mov r8, r8)
    1978:	00003410 	.word	0x00003410
    197c:	00003420 	.word	0x00003420
    1980:	0000342c 	.word	0x0000342c
    1984:	00003438 	.word	0x00003438
    1988:	00003444 	.word	0x00003444

0000198c <GPRS_Send_Data>:
GPRS_Send_Data():
E:\BOBO_KDS\KL25_DS18_GPRS\Debug/../07_Soft_Component/gprs/gprs.c:290

//功能：发送数据
//参数：uint_8 Data:发送的数据 char * AT_QISEND：表示main函数的局部变量AT+QISEND=length的指令数组
//返回值：uint_8 1，表示发送数据成功，0 表示发送数据失败
int_8 GPRS_Send_Data(uint_8 * Sender_AndroidEnd)
{
    198c:	b580      	push	{r7, lr}
    198e:	b084      	sub	sp, #16
    1990:	af00      	add	r7, sp, #0
    1992:	6078      	str	r0, [r7, #4]
E:\BOBO_KDS\KL25_DS18_GPRS\Debug/../07_Soft_Component/gprs/gprs.c:291
	int_8 flag = 0;
    1994:	1c3b      	adds	r3, r7, #0
    1996:	330f      	adds	r3, #15
    1998:	2200      	movs	r2, #0
    199a:	701a      	strb	r2, [r3, #0]
E:\BOBO_KDS\KL25_DS18_GPRS\Debug/../07_Soft_Component/gprs/gprs.c:293
	//发送数据(发送数据通过 AT+QISEND 62 表示ASCII值 “>”,50表示50ms)
	if(Send_AT_Command("AT+CIPSEND=1",">",7)==1)
    199c:	4a12      	ldr	r2, [pc, #72]	; (19e8 <GPRS_Send_Data+0x5c>)
    199e:	4b13      	ldr	r3, [pc, #76]	; (19ec <GPRS_Send_Data+0x60>)
    19a0:	1c10      	adds	r0, r2, #0
    19a2:	1c19      	adds	r1, r3, #0
    19a4:	2207      	movs	r2, #7
    19a6:	f7ff fe95 	bl	16d4 <Send_AT_Command>
    19aa:	1c03      	adds	r3, r0, #0
    19ac:	2b01      	cmp	r3, #1
    19ae:	d10d      	bne.n	19cc <GPRS_Send_Data+0x40>
E:\BOBO_KDS\KL25_DS18_GPRS\Debug/../07_Soft_Component/gprs/gprs.c:302
//		if(Send_AT_Command(Sender_AndroidEnd,"OK",100)==1)
//		{
		//通过strcat函数合并AT_command传入的是一个固定长度的字符串如"AT"
	//	strcat(AT_command,"\r\n");
		//通过UART2串口发送命令。
		uart_sendN(UART_2,7,Sender_AndroidEnd);
    19b0:	687b      	ldr	r3, [r7, #4]
    19b2:	2002      	movs	r0, #2
    19b4:	2107      	movs	r1, #7
    19b6:	1c1a      	adds	r2, r3, #0
    19b8:	f000 ff6c 	bl	2894 <uart_sendN>
E:\BOBO_KDS\KL25_DS18_GPRS\Debug/../07_Soft_Component/gprs/gprs.c:304
		//延时wait_time_MS ms
		delayms(100);
    19bc:	2064      	movs	r0, #100	; 0x64
    19be:	f000 f8d1 	bl	1b64 <delayms>
E:\BOBO_KDS\KL25_DS18_GPRS\Debug/../07_Soft_Component/gprs/gprs.c:306
			//设置发送成功标志
		flag = SEND_OK;
    19c2:	1c3b      	adds	r3, r7, #0
    19c4:	330f      	adds	r3, #15
    19c6:	2201      	movs	r2, #1
    19c8:	701a      	strb	r2, [r3, #0]
E:\BOBO_KDS\KL25_DS18_GPRS\Debug/../07_Soft_Component/gprs/gprs.c:307
		goto end;
    19ca:	e004      	b.n	19d6 <GPRS_Send_Data+0x4a>
E:\BOBO_KDS\KL25_DS18_GPRS\Debug/../07_Soft_Component/gprs/gprs.c:312
	}
	else
	{
		//返回发送错误 -14
		flag = AT_CIPSEND_ERROR;
    19cc:	1c3b      	adds	r3, r7, #0
    19ce:	330f      	adds	r3, #15
    19d0:	22f2      	movs	r2, #242	; 0xf2
    19d2:	701a      	strb	r2, [r3, #0]
E:\BOBO_KDS\KL25_DS18_GPRS\Debug/../07_Soft_Component/gprs/gprs.c:313
		goto end;
    19d4:	46c0      	nop			; (mov r8, r8)
E:\BOBO_KDS\KL25_DS18_GPRS\Debug/../07_Soft_Component/gprs/gprs.c:315
	}
	end: return flag;
    19d6:	1c3b      	adds	r3, r7, #0
    19d8:	330f      	adds	r3, #15
    19da:	781b      	ldrb	r3, [r3, #0]
    19dc:	b25b      	sxtb	r3, r3
E:\BOBO_KDS\KL25_DS18_GPRS\Debug/../07_Soft_Component/gprs/gprs.c:316
}
    19de:	1c18      	adds	r0, r3, #0
    19e0:	46bd      	mov	sp, r7
    19e2:	b004      	add	sp, #16
    19e4:	bd80      	pop	{r7, pc}
    19e6:	46c0      	nop			; (mov r8, r8)
    19e8:	00003450 	.word	0x00003450
    19ec:	00003460 	.word	0x00003460

000019f0 <GPRS_Config>:
GPRS_Config():
E:\BOBO_KDS\KL25_DS18_GPRS\Debug/../07_Soft_Component/gprs/gprs.c:322

//功能：执行对附着->激活->连接的进一步在操作（也就是一些主要配置）
//参数:char *Server_IP_Port
//返回值：为uint_8  = 1表示连接成功   < 0 表示连接失败
int_8 GPRS_Config(char *Server_IP_Port)
{
    19f0:	b580      	push	{r7, lr}
    19f2:	b084      	sub	sp, #16
    19f4:	af00      	add	r7, sp, #0
    19f6:	6078      	str	r0, [r7, #4]
E:\BOBO_KDS\KL25_DS18_GPRS\Debug/../07_Soft_Component/gprs/gprs.c:323
	int_8 flag = 0;
    19f8:	1c3b      	adds	r3, r7, #0
    19fa:	330f      	adds	r3, #15
    19fc:	2200      	movs	r2, #0
    19fe:	701a      	strb	r2, [r3, #0]
E:\BOBO_KDS\KL25_DS18_GPRS\Debug/../07_Soft_Component/gprs/gprs.c:325
	//附着网络，，3s
	if(Send_AT_Command("AT+CGATT=1","OK",20))
    1a00:	4a1c      	ldr	r2, [pc, #112]	; (1a74 <GPRS_Config+0x84>)
    1a02:	4b1d      	ldr	r3, [pc, #116]	; (1a78 <GPRS_Config+0x88>)
    1a04:	1c10      	adds	r0, r2, #0
    1a06:	1c19      	adds	r1, r3, #0
    1a08:	2214      	movs	r2, #20
    1a0a:	f7ff fe63 	bl	16d4 <Send_AT_Command>
    1a0e:	1c03      	adds	r3, r0, #0
    1a10:	2b00      	cmp	r3, #0
    1a12:	d022      	beq.n	1a5a <GPRS_Config+0x6a>
E:\BOBO_KDS\KL25_DS18_GPRS\Debug/../07_Soft_Component/gprs/gprs.c:328
	{
		//激活网络 2S
		if(Send_AT_Command("AT+CGACT=1,1","OK",50))
    1a14:	4a19      	ldr	r2, [pc, #100]	; (1a7c <GPRS_Config+0x8c>)
    1a16:	4b18      	ldr	r3, [pc, #96]	; (1a78 <GPRS_Config+0x88>)
    1a18:	1c10      	adds	r0, r2, #0
    1a1a:	1c19      	adds	r1, r3, #0
    1a1c:	2232      	movs	r2, #50	; 0x32
    1a1e:	f7ff fe59 	bl	16d4 <Send_AT_Command>
    1a22:	1c03      	adds	r3, r0, #0
    1a24:	2b00      	cmp	r3, #0
    1a26:	d013      	beq.n	1a50 <GPRS_Config+0x60>
E:\BOBO_KDS\KL25_DS18_GPRS\Debug/../07_Soft_Component/gprs/gprs.c:331
		{
			//连接网络 2S
			if(Send_AT_Command(Server_IP_Port,"CONNECT OK",40))
    1a28:	687a      	ldr	r2, [r7, #4]
    1a2a:	4b15      	ldr	r3, [pc, #84]	; (1a80 <GPRS_Config+0x90>)
    1a2c:	1c10      	adds	r0, r2, #0
    1a2e:	1c19      	adds	r1, r3, #0
    1a30:	2228      	movs	r2, #40	; 0x28
    1a32:	f7ff fe4f 	bl	16d4 <Send_AT_Command>
    1a36:	1c03      	adds	r3, r0, #0
    1a38:	2b00      	cmp	r3, #0
    1a3a:	d004      	beq.n	1a46 <GPRS_Config+0x56>
E:\BOBO_KDS\KL25_DS18_GPRS\Debug/../07_Soft_Component/gprs/gprs.c:334
			{
				//连接成功标志
				flag = CONNEXCT_OK;
    1a3c:	1c3b      	adds	r3, r7, #0
    1a3e:	330f      	adds	r3, #15
    1a40:	2201      	movs	r2, #1
    1a42:	701a      	strb	r2, [r3, #0]
E:\BOBO_KDS\KL25_DS18_GPRS\Debug/../07_Soft_Component/gprs/gprs.c:335
				goto end;
    1a44:	e00e      	b.n	1a64 <GPRS_Config+0x74>
E:\BOBO_KDS\KL25_DS18_GPRS\Debug/../07_Soft_Component/gprs/gprs.c:340
			}
			else
			{
				//返回连接失败值 -13
				flag = AT_CIPSTART_ERROR;
    1a46:	1c3b      	adds	r3, r7, #0
    1a48:	330f      	adds	r3, #15
    1a4a:	22f3      	movs	r2, #243	; 0xf3
    1a4c:	701a      	strb	r2, [r3, #0]
E:\BOBO_KDS\KL25_DS18_GPRS\Debug/../07_Soft_Component/gprs/gprs.c:341
				goto end;
    1a4e:	e009      	b.n	1a64 <GPRS_Config+0x74>
E:\BOBO_KDS\KL25_DS18_GPRS\Debug/../07_Soft_Component/gprs/gprs.c:347
			}
		}
		else
		{
			//激活网络失败
			flag = AT_CGACT_ERROR;
    1a50:	1c3b      	adds	r3, r7, #0
    1a52:	330f      	adds	r3, #15
    1a54:	22f4      	movs	r2, #244	; 0xf4
    1a56:	701a      	strb	r2, [r3, #0]
E:\BOBO_KDS\KL25_DS18_GPRS\Debug/../07_Soft_Component/gprs/gprs.c:348
			goto end;
    1a58:	e004      	b.n	1a64 <GPRS_Config+0x74>
E:\BOBO_KDS\KL25_DS18_GPRS\Debug/../07_Soft_Component/gprs/gprs.c:354
		}
	}
	else
	{
		//返回附着网络错误 -11
		flag = AT_CGATT_ERROR;
    1a5a:	1c3b      	adds	r3, r7, #0
    1a5c:	330f      	adds	r3, #15
    1a5e:	22f5      	movs	r2, #245	; 0xf5
    1a60:	701a      	strb	r2, [r3, #0]
E:\BOBO_KDS\KL25_DS18_GPRS\Debug/../07_Soft_Component/gprs/gprs.c:355
		goto end;
    1a62:	46c0      	nop			; (mov r8, r8)
E:\BOBO_KDS\KL25_DS18_GPRS\Debug/../07_Soft_Component/gprs/gprs.c:357
	}
	end:return flag;
    1a64:	1c3b      	adds	r3, r7, #0
    1a66:	330f      	adds	r3, #15
    1a68:	781b      	ldrb	r3, [r3, #0]
    1a6a:	b25b      	sxtb	r3, r3
E:\BOBO_KDS\KL25_DS18_GPRS\Debug/../07_Soft_Component/gprs/gprs.c:358
}
    1a6c:	1c18      	adds	r0, r3, #0
    1a6e:	46bd      	mov	sp, r7
    1a70:	b004      	add	sp, #16
    1a72:	bd80      	pop	{r7, pc}
    1a74:	00003464 	.word	0x00003464
    1a78:	000033f8 	.word	0x000033f8
    1a7c:	00003470 	.word	0x00003470
    1a80:	00003420 	.word	0x00003420

00001a84 <light_init>:
light_init():
E:\BOBO_KDS\KL25_DS18_GPRS\Debug/../06_App_Component/light/light.c:16
//       state：设定小灯状态。由light.h中宏定义。
//函数返回：无
//功能概要：指示灯驱动初始化。
//=====================================================================
void light_init(uint_16 port_pin, uint_8 state)
{
    1a84:	b580      	push	{r7, lr}
    1a86:	b082      	sub	sp, #8
    1a88:	af00      	add	r7, sp, #0
    1a8a:	1c0a      	adds	r2, r1, #0
    1a8c:	1dbb      	adds	r3, r7, #6
    1a8e:	1c01      	adds	r1, r0, #0
    1a90:	8019      	strh	r1, [r3, #0]
    1a92:	1d7b      	adds	r3, r7, #5
    1a94:	701a      	strb	r2, [r3, #0]
E:\BOBO_KDS\KL25_DS18_GPRS\Debug/../06_App_Component/light/light.c:17
    gpio_init(port_pin, GPIO_OUTPUT, state);
    1a96:	1dbb      	adds	r3, r7, #6
    1a98:	881a      	ldrh	r2, [r3, #0]
    1a9a:	1d7b      	adds	r3, r7, #5
    1a9c:	781b      	ldrb	r3, [r3, #0]
    1a9e:	1c10      	adds	r0, r2, #0
    1aa0:	2101      	movs	r1, #1
    1aa2:	1c1a      	adds	r2, r3, #0
    1aa4:	f001 f980 	bl	2da8 <gpio_init>
E:\BOBO_KDS\KL25_DS18_GPRS\Debug/../06_App_Component/light/light.c:18
}
    1aa8:	46bd      	mov	sp, r7
    1aaa:	b002      	add	sp, #8
    1aac:	bd80      	pop	{r7, pc}
    1aae:	46c0      	nop			; (mov r8, r8)

00001ab0 <light_control>:
light_control():
E:\BOBO_KDS\KL25_DS18_GPRS\Debug/../06_App_Component/light/light.c:28
//       state：设定小灯状态。由light.h中宏定义。
//函数返回：无
//功能概要：控制指示灯亮暗。
//=====================================================================
void light_control(uint_16 port_pin, uint_8 state)
{
    1ab0:	b580      	push	{r7, lr}
    1ab2:	b082      	sub	sp, #8
    1ab4:	af00      	add	r7, sp, #0
    1ab6:	1c0a      	adds	r2, r1, #0
    1ab8:	1dbb      	adds	r3, r7, #6
    1aba:	1c01      	adds	r1, r0, #0
    1abc:	8019      	strh	r1, [r3, #0]
    1abe:	1d7b      	adds	r3, r7, #5
    1ac0:	701a      	strb	r2, [r3, #0]
E:\BOBO_KDS\KL25_DS18_GPRS\Debug/../06_App_Component/light/light.c:29
    gpio_set(port_pin, state);
    1ac2:	1dbb      	adds	r3, r7, #6
    1ac4:	881a      	ldrh	r2, [r3, #0]
    1ac6:	1d7b      	adds	r3, r7, #5
    1ac8:	781b      	ldrb	r3, [r3, #0]
    1aca:	1c10      	adds	r0, r2, #0
    1acc:	1c19      	adds	r1, r3, #0
    1ace:	f001 f9df 	bl	2e90 <gpio_set>
E:\BOBO_KDS\KL25_DS18_GPRS\Debug/../06_App_Component/light/light.c:30
}
    1ad2:	46bd      	mov	sp, r7
    1ad4:	b002      	add	sp, #8
    1ad6:	bd80      	pop	{r7, pc}

00001ad8 <light_change>:
light_change():
E:\BOBO_KDS\KL25_DS18_GPRS\Debug/../06_App_Component/light/light.c:39
//函数参数：port_pin：(端口号)|(引脚号)（如：(PTB_NUM)|(9) 表示为B口9号脚）
//函数返回：无
//功能概要：切换指示灯亮暗。
//=====================================================================
void light_change(uint_16 port_pin)
{
    1ad8:	b580      	push	{r7, lr}
    1ada:	b082      	sub	sp, #8
    1adc:	af00      	add	r7, sp, #0
    1ade:	1c02      	adds	r2, r0, #0
    1ae0:	1dbb      	adds	r3, r7, #6
    1ae2:	801a      	strh	r2, [r3, #0]
E:\BOBO_KDS\KL25_DS18_GPRS\Debug/../06_App_Component/light/light.c:40
    gpio_reverse(port_pin);
    1ae4:	1dbb      	adds	r3, r7, #6
    1ae6:	881b      	ldrh	r3, [r3, #0]
    1ae8:	1c18      	adds	r0, r3, #0
    1aea:	f001 fa11 	bl	2f10 <gpio_reverse>
E:\BOBO_KDS\KL25_DS18_GPRS\Debug/../06_App_Component/light/light.c:41
}
    1aee:	46bd      	mov	sp, r7
    1af0:	b002      	add	sp, #8
    1af2:	bd80      	pop	{r7, pc}

00001af4 <delay_us>:
delay_us():
E:\BOBO_KDS\KL25_DS18_GPRS\Debug/../06_App_Component/delay/delay.c:9
 *  Created on: 2017年11月18日
 *      Author: Administrator
 */
#include "delay.h"

void delay_us(uint_16 m) {
    1af4:	b580      	push	{r7, lr}
    1af6:	b082      	sub	sp, #8
    1af8:	af00      	add	r7, sp, #0
    1afa:	1c02      	adds	r2, r0, #0
    1afc:	1dbb      	adds	r3, r7, #6
    1afe:	801a      	strh	r2, [r3, #0]
E:\BOBO_KDS\KL25_DS18_GPRS\Debug/../06_App_Component/delay/delay.c:11
	
	while (m--) {
    1b00:	e000      	b.n	1b04 <delay_us+0x10>
E:\BOBO_KDS\KL25_DS18_GPRS\Debug/../06_App_Component/delay/delay.c:12
		asm("NOP");
    1b02:	46c0      	nop			; (mov r8, r8)
E:\BOBO_KDS\KL25_DS18_GPRS\Debug/../06_App_Component/delay/delay.c:11 (discriminator 1)
 */
#include "delay.h"

void delay_us(uint_16 m) {
	
	while (m--) {
    1b04:	1dbb      	adds	r3, r7, #6
    1b06:	881b      	ldrh	r3, [r3, #0]
    1b08:	1dba      	adds	r2, r7, #6
    1b0a:	1e59      	subs	r1, r3, #1
    1b0c:	8011      	strh	r1, [r2, #0]
    1b0e:	2b00      	cmp	r3, #0
    1b10:	d1f7      	bne.n	1b02 <delay_us+0xe>
E:\BOBO_KDS\KL25_DS18_GPRS\Debug/../06_App_Component/delay/delay.c:14
		asm("NOP");
	}
}
    1b12:	46bd      	mov	sp, r7
    1b14:	b002      	add	sp, #8
    1b16:	bd80      	pop	{r7, pc}

00001b18 <delay_ms>:
delay_ms():
E:\BOBO_KDS\KL25_DS18_GPRS\Debug/../06_App_Component/delay/delay.c:16

void delay_ms(uint_16 m) {
    1b18:	b580      	push	{r7, lr}
    1b1a:	b084      	sub	sp, #16
    1b1c:	af00      	add	r7, sp, #0
    1b1e:	1c02      	adds	r2, r0, #0
    1b20:	1dbb      	adds	r3, r7, #6
    1b22:	801a      	strh	r2, [r3, #0]
E:\BOBO_KDS\KL25_DS18_GPRS\Debug/../06_App_Component/delay/delay.c:18
	uint_8 i;
	while (m--) {
    1b24:	e013      	b.n	1b4e <delay_ms+0x36>
E:\BOBO_KDS\KL25_DS18_GPRS\Debug/../06_App_Component/delay/delay.c:19
		for(i=0; i<200;i++){
    1b26:	1c3b      	adds	r3, r7, #0
    1b28:	330f      	adds	r3, #15
    1b2a:	2200      	movs	r2, #0
    1b2c:	701a      	strb	r2, [r3, #0]
    1b2e:	e009      	b.n	1b44 <delay_ms+0x2c>
E:\BOBO_KDS\KL25_DS18_GPRS\Debug/../06_App_Component/delay/delay.c:20 (discriminator 2)
			delay_us(12);
    1b30:	200c      	movs	r0, #12
    1b32:	f7ff ffdf 	bl	1af4 <delay_us>
E:\BOBO_KDS\KL25_DS18_GPRS\Debug/../06_App_Component/delay/delay.c:19 (discriminator 2)
}

void delay_ms(uint_16 m) {
	uint_8 i;
	while (m--) {
		for(i=0; i<200;i++){
    1b36:	1c3b      	adds	r3, r7, #0
    1b38:	330f      	adds	r3, #15
    1b3a:	781a      	ldrb	r2, [r3, #0]
    1b3c:	1c3b      	adds	r3, r7, #0
    1b3e:	330f      	adds	r3, #15
    1b40:	3201      	adds	r2, #1
    1b42:	701a      	strb	r2, [r3, #0]
E:\BOBO_KDS\KL25_DS18_GPRS\Debug/../06_App_Component/delay/delay.c:19 (discriminator 1)
    1b44:	1c3b      	adds	r3, r7, #0
    1b46:	330f      	adds	r3, #15
    1b48:	781b      	ldrb	r3, [r3, #0]
    1b4a:	2bc7      	cmp	r3, #199	; 0xc7
    1b4c:	d9f0      	bls.n	1b30 <delay_ms+0x18>
E:\BOBO_KDS\KL25_DS18_GPRS\Debug/../06_App_Component/delay/delay.c:18 (discriminator 1)
	}
}

void delay_ms(uint_16 m) {
	uint_8 i;
	while (m--) {
    1b4e:	1dbb      	adds	r3, r7, #6
    1b50:	881b      	ldrh	r3, [r3, #0]
    1b52:	1dba      	adds	r2, r7, #6
    1b54:	1e59      	subs	r1, r3, #1
    1b56:	8011      	strh	r1, [r2, #0]
    1b58:	2b00      	cmp	r3, #0
    1b5a:	d1e4      	bne.n	1b26 <delay_ms+0xe>
E:\BOBO_KDS\KL25_DS18_GPRS\Debug/../06_App_Component/delay/delay.c:23
		for(i=0; i<200;i++){
			delay_us(12);
		}
	}
}
    1b5c:	46bd      	mov	sp, r7
    1b5e:	b004      	add	sp, #16
    1b60:	bd80      	pop	{r7, pc}
    1b62:	46c0      	nop			; (mov r8, r8)

00001b64 <delayms>:
delayms():
E:\BOBO_KDS\KL25_DS18_GPRS\Debug/../06_App_Component/delay/delay.c:33
	}
}


void delayms(uint_16 m)
{
    1b64:	b580      	push	{r7, lr}
    1b66:	b082      	sub	sp, #8
    1b68:	af00      	add	r7, sp, #0
    1b6a:	1c02      	adds	r2, r0, #0
    1b6c:	1dbb      	adds	r3, r7, #6
    1b6e:	801a      	strh	r2, [r3, #0]
E:\BOBO_KDS\KL25_DS18_GPRS\Debug/../06_App_Component/delay/delay.c:34
	gprs_count = m;
    1b70:	4b05      	ldr	r3, [pc, #20]	; (1b88 <delayms+0x24>)
    1b72:	1dba      	adds	r2, r7, #6
    1b74:	8812      	ldrh	r2, [r2, #0]
    1b76:	801a      	strh	r2, [r3, #0]
E:\BOBO_KDS\KL25_DS18_GPRS\Debug/../06_App_Component/delay/delay.c:35
	while(gprs_count != 0);
    1b78:	46c0      	nop			; (mov r8, r8)
E:\BOBO_KDS\KL25_DS18_GPRS\Debug/../06_App_Component/delay/delay.c:35 (discriminator 1)
    1b7a:	4b03      	ldr	r3, [pc, #12]	; (1b88 <delayms+0x24>)
    1b7c:	881b      	ldrh	r3, [r3, #0]
    1b7e:	2b00      	cmp	r3, #0
    1b80:	d1fb      	bne.n	1b7a <delayms+0x16>
E:\BOBO_KDS\KL25_DS18_GPRS\Debug/../06_App_Component/delay/delay.c:36
}
    1b82:	46bd      	mov	sp, r7
    1b84:	b002      	add	sp, #8
    1b86:	bd80      	pop	{r7, pc}
    1b88:	1ffff024 	.word	0x1ffff024

00001b8c <DelayS>:
DelayS():
E:\BOBO_KDS\KL25_DS18_GPRS\Debug/../06_App_Component/delay/delay.c:43

//功能：OLED计时，每一次循环20ms
//参数：uint_8 timer: 表示所需要延时的时间以s为单位
//返回值：uint_8 flag  1 表示延时成功  0 表示继续延时
uint_8 DelayS(uint_8 timer)
{
    1b8c:	b580      	push	{r7, lr}
    1b8e:	b084      	sub	sp, #16
    1b90:	af00      	add	r7, sp, #0
    1b92:	1c02      	adds	r2, r0, #0
    1b94:	1dfb      	adds	r3, r7, #7
    1b96:	701a      	strb	r2, [r3, #0]
E:\BOBO_KDS\KL25_DS18_GPRS\Debug/../06_App_Component/delay/delay.c:44
	uint_8 flag = 0;
    1b98:	1c3b      	adds	r3, r7, #0
    1b9a:	330f      	adds	r3, #15
    1b9c:	2200      	movs	r2, #0
    1b9e:	701a      	strb	r2, [r3, #0]
E:\BOBO_KDS\KL25_DS18_GPRS\Debug/../06_App_Component/delay/delay.c:45
	if(oled_count >= 100*timer)
    1ba0:	4b0b      	ldr	r3, [pc, #44]	; (1bd0 <DelayS+0x44>)
    1ba2:	881b      	ldrh	r3, [r3, #0]
    1ba4:	1c1a      	adds	r2, r3, #0
    1ba6:	1dfb      	adds	r3, r7, #7
    1ba8:	781b      	ldrb	r3, [r3, #0]
    1baa:	2164      	movs	r1, #100	; 0x64
    1bac:	434b      	muls	r3, r1
    1bae:	429a      	cmp	r2, r3
    1bb0:	db06      	blt.n	1bc0 <DelayS+0x34>
E:\BOBO_KDS\KL25_DS18_GPRS\Debug/../06_App_Component/delay/delay.c:47
	{
		oled_count = 0;
    1bb2:	4b07      	ldr	r3, [pc, #28]	; (1bd0 <DelayS+0x44>)
    1bb4:	2200      	movs	r2, #0
    1bb6:	801a      	strh	r2, [r3, #0]
E:\BOBO_KDS\KL25_DS18_GPRS\Debug/../06_App_Component/delay/delay.c:48
		flag = 1;
    1bb8:	1c3b      	adds	r3, r7, #0
    1bba:	330f      	adds	r3, #15
    1bbc:	2201      	movs	r2, #1
    1bbe:	701a      	strb	r2, [r3, #0]
E:\BOBO_KDS\KL25_DS18_GPRS\Debug/../06_App_Component/delay/delay.c:50
	}
	return flag;
    1bc0:	1c3b      	adds	r3, r7, #0
    1bc2:	330f      	adds	r3, #15
    1bc4:	781b      	ldrb	r3, [r3, #0]
E:\BOBO_KDS\KL25_DS18_GPRS\Debug/../06_App_Component/delay/delay.c:51
}
    1bc6:	1c18      	adds	r0, r3, #0
    1bc8:	46bd      	mov	sp, r7
    1bca:	b004      	add	sp, #16
    1bcc:	bd80      	pop	{r7, pc}
    1bce:	46c0      	nop			; (mov r8, r8)
    1bd0:	1ffff090 	.word	0x1ffff090

00001bd4 <OLED_WrCmd>:
OLED_WrCmd():
E:\BOBO_KDS\KL25_DS18_GPRS\Debug/../06_App_Component/OLED/OLED.c:224
	0x00,0x06,0x01,0x01,0x02,0x02,0x04,0x04,0x00,0x00,0x00,0x00,0x00,0x00,0x00,0x00,//~ 94

};
//内部使用用户无需调用
void OLED_WrCmd(uint_8 cmd)
{
    1bd4:	b580      	push	{r7, lr}
    1bd6:	b084      	sub	sp, #16
    1bd8:	af00      	add	r7, sp, #0
    1bda:	1c02      	adds	r2, r0, #0
    1bdc:	1dfb      	adds	r3, r7, #7
    1bde:	701a      	strb	r2, [r3, #0]
E:\BOBO_KDS\KL25_DS18_GPRS\Debug/../06_App_Component/OLED/OLED.c:225
	uint_8 i=8;
    1be0:	1c3b      	adds	r3, r7, #0
    1be2:	330f      	adds	r3, #15
    1be4:	2208      	movs	r2, #8
    1be6:	701a      	strb	r2, [r3, #0]
E:\BOBO_KDS\KL25_DS18_GPRS\Debug/../06_App_Component/OLED/OLED.c:227

	OLED_DC(0);
    1be8:	2381      	movs	r3, #129	; 0x81
    1bea:	005b      	lsls	r3, r3, #1
    1bec:	1c18      	adds	r0, r3, #0
    1bee:	2100      	movs	r1, #0
    1bf0:	f001 f94e 	bl	2e90 <gpio_set>
E:\BOBO_KDS\KL25_DS18_GPRS\Debug/../06_App_Component/OLED/OLED.c:228
	OLED_SCL(0);;
    1bf4:	2388      	movs	r3, #136	; 0x88
    1bf6:	005b      	lsls	r3, r3, #1
    1bf8:	1c18      	adds	r0, r3, #0
    1bfa:	2100      	movs	r1, #0
    1bfc:	f001 f948 	bl	2e90 <gpio_set>
E:\BOBO_KDS\KL25_DS18_GPRS\Debug/../06_App_Component/OLED/OLED.c:230

	while(i--)
    1c00:	e022      	b.n	1c48 <OLED_WrCmd+0x74>
E:\BOBO_KDS\KL25_DS18_GPRS\Debug/../06_App_Component/OLED/OLED.c:232
	{
		if(cmd&0x80){OLED_SDA(1);}
    1c02:	1dfb      	adds	r3, r7, #7
    1c04:	781b      	ldrb	r3, [r3, #0]
    1c06:	b25b      	sxtb	r3, r3
    1c08:	2b00      	cmp	r3, #0
    1c0a:	da06      	bge.n	1c1a <OLED_WrCmd+0x46>
E:\BOBO_KDS\KL25_DS18_GPRS\Debug/../06_App_Component/OLED/OLED.c:232 (discriminator 1)
    1c0c:	2385      	movs	r3, #133	; 0x85
    1c0e:	005b      	lsls	r3, r3, #1
    1c10:	1c18      	adds	r0, r3, #0
    1c12:	2101      	movs	r1, #1
    1c14:	f001 f93c 	bl	2e90 <gpio_set>
    1c18:	e005      	b.n	1c26 <OLED_WrCmd+0x52>
E:\BOBO_KDS\KL25_DS18_GPRS\Debug/../06_App_Component/OLED/OLED.c:233
		else{OLED_SDA(0);}
    1c1a:	2385      	movs	r3, #133	; 0x85
    1c1c:	005b      	lsls	r3, r3, #1
    1c1e:	1c18      	adds	r0, r3, #0
    1c20:	2100      	movs	r1, #0
    1c22:	f001 f935 	bl	2e90 <gpio_set>
E:\BOBO_KDS\KL25_DS18_GPRS\Debug/../06_App_Component/OLED/OLED.c:234
		OLED_SCL(1);
    1c26:	2388      	movs	r3, #136	; 0x88
    1c28:	005b      	lsls	r3, r3, #1
    1c2a:	1c18      	adds	r0, r3, #0
    1c2c:	2101      	movs	r1, #1
    1c2e:	f001 f92f 	bl	2e90 <gpio_set>
E:\BOBO_KDS\KL25_DS18_GPRS\Debug/../06_App_Component/OLED/OLED.c:236

		OLED_SCL(0);
    1c32:	2388      	movs	r3, #136	; 0x88
    1c34:	005b      	lsls	r3, r3, #1
    1c36:	1c18      	adds	r0, r3, #0
    1c38:	2100      	movs	r1, #0
    1c3a:	f001 f929 	bl	2e90 <gpio_set>
E:\BOBO_KDS\KL25_DS18_GPRS\Debug/../06_App_Component/OLED/OLED.c:237
		cmd<<=1;
    1c3e:	1dfa      	adds	r2, r7, #7
    1c40:	1dfb      	adds	r3, r7, #7
    1c42:	781b      	ldrb	r3, [r3, #0]
    1c44:	18db      	adds	r3, r3, r3
    1c46:	7013      	strb	r3, [r2, #0]
E:\BOBO_KDS\KL25_DS18_GPRS\Debug/../06_App_Component/OLED/OLED.c:230 (discriminator 1)
	uint_8 i=8;

	OLED_DC(0);
	OLED_SCL(0);;

	while(i--)
    1c48:	1c3b      	adds	r3, r7, #0
    1c4a:	330f      	adds	r3, #15
    1c4c:	781b      	ldrb	r3, [r3, #0]
    1c4e:	1c3a      	adds	r2, r7, #0
    1c50:	320f      	adds	r2, #15
    1c52:	1e59      	subs	r1, r3, #1
    1c54:	7011      	strb	r1, [r2, #0]
    1c56:	2b00      	cmp	r3, #0
    1c58:	d1d3      	bne.n	1c02 <OLED_WrCmd+0x2e>
E:\BOBO_KDS\KL25_DS18_GPRS\Debug/../06_App_Component/OLED/OLED.c:240

		OLED_SCL(0);
		cmd<<=1;
	}

}
    1c5a:	46bd      	mov	sp, r7
    1c5c:	b004      	add	sp, #16
    1c5e:	bd80      	pop	{r7, pc}

00001c60 <OLED_Set_Pos>:
OLED_Set_Pos():
E:\BOBO_KDS\KL25_DS18_GPRS\Debug/../06_App_Component/OLED/OLED.c:243

void OLED_Set_Pos(uint_8 x, uint_8 y)
{
    1c60:	b580      	push	{r7, lr}
    1c62:	b082      	sub	sp, #8
    1c64:	af00      	add	r7, sp, #0
    1c66:	1c0a      	adds	r2, r1, #0
    1c68:	1dfb      	adds	r3, r7, #7
    1c6a:	1c01      	adds	r1, r0, #0
    1c6c:	7019      	strb	r1, [r3, #0]
    1c6e:	1dbb      	adds	r3, r7, #6
    1c70:	701a      	strb	r2, [r3, #0]
E:\BOBO_KDS\KL25_DS18_GPRS\Debug/../06_App_Component/OLED/OLED.c:244
  OLED_WrCmd(0xb0+y);
    1c72:	1dbb      	adds	r3, r7, #6
    1c74:	781b      	ldrb	r3, [r3, #0]
    1c76:	3b50      	subs	r3, #80	; 0x50
    1c78:	b2db      	uxtb	r3, r3
    1c7a:	1c18      	adds	r0, r3, #0
    1c7c:	f7ff ffaa 	bl	1bd4 <OLED_WrCmd>
E:\BOBO_KDS\KL25_DS18_GPRS\Debug/../06_App_Component/OLED/OLED.c:245
  OLED_WrCmd(((x&0xf0)>>4)|0x10);
    1c80:	1dfb      	adds	r3, r7, #7
    1c82:	781b      	ldrb	r3, [r3, #0]
    1c84:	091b      	lsrs	r3, r3, #4
    1c86:	b2db      	uxtb	r3, r3
    1c88:	2210      	movs	r2, #16
    1c8a:	4313      	orrs	r3, r2
    1c8c:	b2db      	uxtb	r3, r3
    1c8e:	1c18      	adds	r0, r3, #0
    1c90:	f7ff ffa0 	bl	1bd4 <OLED_WrCmd>
E:\BOBO_KDS\KL25_DS18_GPRS\Debug/../06_App_Component/OLED/OLED.c:246
  OLED_WrCmd((x&0x0f)|0x01);
    1c94:	1dfb      	adds	r3, r7, #7
    1c96:	781b      	ldrb	r3, [r3, #0]
    1c98:	1c1a      	adds	r2, r3, #0
    1c9a:	230e      	movs	r3, #14
    1c9c:	4013      	ands	r3, r2
    1c9e:	b2db      	uxtb	r3, r3
    1ca0:	2201      	movs	r2, #1
    1ca2:	4313      	orrs	r3, r2
    1ca4:	b2db      	uxtb	r3, r3
    1ca6:	b2db      	uxtb	r3, r3
    1ca8:	1c18      	adds	r0, r3, #0
    1caa:	f7ff ff93 	bl	1bd4 <OLED_WrCmd>
E:\BOBO_KDS\KL25_DS18_GPRS\Debug/../06_App_Component/OLED/OLED.c:247
}
    1cae:	46bd      	mov	sp, r7
    1cb0:	b002      	add	sp, #8
    1cb2:	bd80      	pop	{r7, pc}

00001cb4 <OLED_DLY_ms>:
OLED_DLY_ms():
E:\BOBO_KDS\KL25_DS18_GPRS\Debug/../06_App_Component/OLED/OLED.c:251

//内部使用用户无需调用
void OLED_DLY_ms(uint_16 ms)
{
    1cb4:	b580      	push	{r7, lr}
    1cb6:	b084      	sub	sp, #16
    1cb8:	af00      	add	r7, sp, #0
    1cba:	1c02      	adds	r2, r0, #0
    1cbc:	1dbb      	adds	r3, r7, #6
    1cbe:	801a      	strh	r2, [r3, #0]
E:\BOBO_KDS\KL25_DS18_GPRS\Debug/../06_App_Component/OLED/OLED.c:253
	uint_16 a;
	while(ms)
    1cc0:	e012      	b.n	1ce8 <OLED_DLY_ms+0x34>
E:\BOBO_KDS\KL25_DS18_GPRS\Debug/../06_App_Component/OLED/OLED.c:255
	{
	 	a=48000;
    1cc2:	1c3b      	adds	r3, r7, #0
    1cc4:	330e      	adds	r3, #14
    1cc6:	4a0c      	ldr	r2, [pc, #48]	; (1cf8 <OLED_DLY_ms+0x44>)
    1cc8:	801a      	strh	r2, [r3, #0]
E:\BOBO_KDS\KL25_DS18_GPRS\Debug/../06_App_Component/OLED/OLED.c:256
	 	while(a--);
    1cca:	46c0      	nop			; (mov r8, r8)
E:\BOBO_KDS\KL25_DS18_GPRS\Debug/../06_App_Component/OLED/OLED.c:256 (discriminator 1)
    1ccc:	1c3b      	adds	r3, r7, #0
    1cce:	330e      	adds	r3, #14
    1cd0:	881b      	ldrh	r3, [r3, #0]
    1cd2:	1c3a      	adds	r2, r7, #0
    1cd4:	320e      	adds	r2, #14
    1cd6:	1e59      	subs	r1, r3, #1
    1cd8:	8011      	strh	r1, [r2, #0]
    1cda:	2b00      	cmp	r3, #0
    1cdc:	d1f6      	bne.n	1ccc <OLED_DLY_ms+0x18>
E:\BOBO_KDS\KL25_DS18_GPRS\Debug/../06_App_Component/OLED/OLED.c:257
	 	ms--;
    1cde:	1dbb      	adds	r3, r7, #6
    1ce0:	881a      	ldrh	r2, [r3, #0]
    1ce2:	1dbb      	adds	r3, r7, #6
    1ce4:	3a01      	subs	r2, #1
    1ce6:	801a      	strh	r2, [r3, #0]
E:\BOBO_KDS\KL25_DS18_GPRS\Debug/../06_App_Component/OLED/OLED.c:253 (discriminator 1)

//内部使用用户无需调用
void OLED_DLY_ms(uint_16 ms)
{
	uint_16 a;
	while(ms)
    1ce8:	1dbb      	adds	r3, r7, #6
    1cea:	881b      	ldrh	r3, [r3, #0]
    1cec:	2b00      	cmp	r3, #0
    1cee:	d1e8      	bne.n	1cc2 <OLED_DLY_ms+0xe>
E:\BOBO_KDS\KL25_DS18_GPRS\Debug/../06_App_Component/OLED/OLED.c:259
	{
	 	a=48000;
	 	while(a--);
	 	ms--;
	}
	return;
    1cf0:	46c0      	nop			; (mov r8, r8)
E:\BOBO_KDS\KL25_DS18_GPRS\Debug/../06_App_Component/OLED/OLED.c:260
}
    1cf2:	46bd      	mov	sp, r7
    1cf4:	b004      	add	sp, #16
    1cf6:	bd80      	pop	{r7, pc}
    1cf8:	ffffbb80 	.word	0xffffbb80

00001cfc <OLED_WrDat>:
OLED_WrDat():
E:\BOBO_KDS\KL25_DS18_GPRS\Debug/../06_App_Component/OLED/OLED.c:263

void OLED_WrDat(uint_8 data)
{
    1cfc:	b580      	push	{r7, lr}
    1cfe:	b084      	sub	sp, #16
    1d00:	af00      	add	r7, sp, #0
    1d02:	1c02      	adds	r2, r0, #0
    1d04:	1dfb      	adds	r3, r7, #7
    1d06:	701a      	strb	r2, [r3, #0]
E:\BOBO_KDS\KL25_DS18_GPRS\Debug/../06_App_Component/OLED/OLED.c:264
	uint_8 i=8;
    1d08:	1c3b      	adds	r3, r7, #0
    1d0a:	330f      	adds	r3, #15
    1d0c:	2208      	movs	r2, #8
    1d0e:	701a      	strb	r2, [r3, #0]
E:\BOBO_KDS\KL25_DS18_GPRS\Debug/../06_App_Component/OLED/OLED.c:266

	OLED_DC(1);
    1d10:	2381      	movs	r3, #129	; 0x81
    1d12:	005b      	lsls	r3, r3, #1
    1d14:	1c18      	adds	r0, r3, #0
    1d16:	2101      	movs	r1, #1
    1d18:	f001 f8ba 	bl	2e90 <gpio_set>
E:\BOBO_KDS\KL25_DS18_GPRS\Debug/../06_App_Component/OLED/OLED.c:267
	OLED_SCL(0);
    1d1c:	2388      	movs	r3, #136	; 0x88
    1d1e:	005b      	lsls	r3, r3, #1
    1d20:	1c18      	adds	r0, r3, #0
    1d22:	2100      	movs	r1, #0
    1d24:	f001 f8b4 	bl	2e90 <gpio_set>
E:\BOBO_KDS\KL25_DS18_GPRS\Debug/../06_App_Component/OLED/OLED.c:268
	while(i--)
    1d28:	e022      	b.n	1d70 <OLED_WrDat+0x74>
E:\BOBO_KDS\KL25_DS18_GPRS\Debug/../06_App_Component/OLED/OLED.c:270
	{
	  	if(data&0x80){OLED_SDA(1);}
    1d2a:	1dfb      	adds	r3, r7, #7
    1d2c:	781b      	ldrb	r3, [r3, #0]
    1d2e:	b25b      	sxtb	r3, r3
    1d30:	2b00      	cmp	r3, #0
    1d32:	da06      	bge.n	1d42 <OLED_WrDat+0x46>
E:\BOBO_KDS\KL25_DS18_GPRS\Debug/../06_App_Component/OLED/OLED.c:270 (discriminator 1)
    1d34:	2385      	movs	r3, #133	; 0x85
    1d36:	005b      	lsls	r3, r3, #1
    1d38:	1c18      	adds	r0, r3, #0
    1d3a:	2101      	movs	r1, #1
    1d3c:	f001 f8a8 	bl	2e90 <gpio_set>
    1d40:	e005      	b.n	1d4e <OLED_WrDat+0x52>
E:\BOBO_KDS\KL25_DS18_GPRS\Debug/../06_App_Component/OLED/OLED.c:271
	  	else{OLED_SDA(0);}
    1d42:	2385      	movs	r3, #133	; 0x85
    1d44:	005b      	lsls	r3, r3, #1
    1d46:	1c18      	adds	r0, r3, #0
    1d48:	2100      	movs	r1, #0
    1d4a:	f001 f8a1 	bl	2e90 <gpio_set>
E:\BOBO_KDS\KL25_DS18_GPRS\Debug/../06_App_Component/OLED/OLED.c:272
	  	OLED_SCL(1);
    1d4e:	2388      	movs	r3, #136	; 0x88
    1d50:	005b      	lsls	r3, r3, #1
    1d52:	1c18      	adds	r0, r3, #0
    1d54:	2101      	movs	r1, #1
    1d56:	f001 f89b 	bl	2e90 <gpio_set>
E:\BOBO_KDS\KL25_DS18_GPRS\Debug/../06_App_Component/OLED/OLED.c:274

	  	OLED_SCL(0);
    1d5a:	2388      	movs	r3, #136	; 0x88
    1d5c:	005b      	lsls	r3, r3, #1
    1d5e:	1c18      	adds	r0, r3, #0
    1d60:	2100      	movs	r1, #0
    1d62:	f001 f895 	bl	2e90 <gpio_set>
E:\BOBO_KDS\KL25_DS18_GPRS\Debug/../06_App_Component/OLED/OLED.c:275
	  	data<<=1;
    1d66:	1dfa      	adds	r2, r7, #7
    1d68:	1dfb      	adds	r3, r7, #7
    1d6a:	781b      	ldrb	r3, [r3, #0]
    1d6c:	18db      	adds	r3, r3, r3
    1d6e:	7013      	strb	r3, [r2, #0]
E:\BOBO_KDS\KL25_DS18_GPRS\Debug/../06_App_Component/OLED/OLED.c:268 (discriminator 1)
{
	uint_8 i=8;

	OLED_DC(1);
	OLED_SCL(0);
	while(i--)
    1d70:	1c3b      	adds	r3, r7, #0
    1d72:	330f      	adds	r3, #15
    1d74:	781b      	ldrb	r3, [r3, #0]
    1d76:	1c3a      	adds	r2, r7, #0
    1d78:	320f      	adds	r2, #15
    1d7a:	1e59      	subs	r1, r3, #1
    1d7c:	7011      	strb	r1, [r2, #0]
    1d7e:	2b00      	cmp	r3, #0
    1d80:	d1d3      	bne.n	1d2a <OLED_WrDat+0x2e>
E:\BOBO_KDS\KL25_DS18_GPRS\Debug/../06_App_Component/OLED/OLED.c:277
	  	OLED_SCL(1);

	  	OLED_SCL(0);
	  	data<<=1;
	}
}
    1d82:	46bd      	mov	sp, r7
    1d84:	b004      	add	sp, #16
    1d86:	bd80      	pop	{r7, pc}

00001d88 <OLED_Fill>:
OLED_Fill():
E:\BOBO_KDS\KL25_DS18_GPRS\Debug/../06_App_Component/OLED/OLED.c:280

void OLED_Fill(uint_8 bmp_data)
{
    1d88:	b580      	push	{r7, lr}
    1d8a:	b084      	sub	sp, #16
    1d8c:	af00      	add	r7, sp, #0
    1d8e:	1c02      	adds	r2, r0, #0
    1d90:	1dfb      	adds	r3, r7, #7
    1d92:	701a      	strb	r2, [r3, #0]
E:\BOBO_KDS\KL25_DS18_GPRS\Debug/../06_App_Component/OLED/OLED.c:283
	uint_8 y,x;

	for(y=0;y<8;y++)
    1d94:	1c3b      	adds	r3, r7, #0
    1d96:	330f      	adds	r3, #15
    1d98:	2200      	movs	r2, #0
    1d9a:	701a      	strb	r2, [r3, #0]
    1d9c:	e02b      	b.n	1df6 <OLED_Fill+0x6e>
E:\BOBO_KDS\KL25_DS18_GPRS\Debug/../06_App_Component/OLED/OLED.c:285
	{
		OLED_WrCmd(0xb0+y);
    1d9e:	1c3b      	adds	r3, r7, #0
    1da0:	330f      	adds	r3, #15
    1da2:	781b      	ldrb	r3, [r3, #0]
    1da4:	3b50      	subs	r3, #80	; 0x50
    1da6:	b2db      	uxtb	r3, r3
    1da8:	1c18      	adds	r0, r3, #0
    1daa:	f7ff ff13 	bl	1bd4 <OLED_WrCmd>
E:\BOBO_KDS\KL25_DS18_GPRS\Debug/../06_App_Component/OLED/OLED.c:286
		OLED_WrCmd(0x01);
    1dae:	2001      	movs	r0, #1
    1db0:	f7ff ff10 	bl	1bd4 <OLED_WrCmd>
E:\BOBO_KDS\KL25_DS18_GPRS\Debug/../06_App_Component/OLED/OLED.c:287
		OLED_WrCmd(0x10);
    1db4:	2010      	movs	r0, #16
    1db6:	f7ff ff0d 	bl	1bd4 <OLED_WrCmd>
E:\BOBO_KDS\KL25_DS18_GPRS\Debug/../06_App_Component/OLED/OLED.c:288
		for(x=0;x<X_WIDTH;x++)	OLED_WrDat(bmp_data);
    1dba:	1c3b      	adds	r3, r7, #0
    1dbc:	330e      	adds	r3, #14
    1dbe:	2200      	movs	r2, #0
    1dc0:	701a      	strb	r2, [r3, #0]
    1dc2:	e00b      	b.n	1ddc <OLED_Fill+0x54>
E:\BOBO_KDS\KL25_DS18_GPRS\Debug/../06_App_Component/OLED/OLED.c:288 (discriminator 2)
    1dc4:	1dfb      	adds	r3, r7, #7
    1dc6:	781b      	ldrb	r3, [r3, #0]
    1dc8:	1c18      	adds	r0, r3, #0
    1dca:	f7ff ff97 	bl	1cfc <OLED_WrDat>
    1dce:	1c3b      	adds	r3, r7, #0
    1dd0:	330e      	adds	r3, #14
    1dd2:	781a      	ldrb	r2, [r3, #0]
    1dd4:	1c3b      	adds	r3, r7, #0
    1dd6:	330e      	adds	r3, #14
    1dd8:	3201      	adds	r2, #1
    1dda:	701a      	strb	r2, [r3, #0]
E:\BOBO_KDS\KL25_DS18_GPRS\Debug/../06_App_Component/OLED/OLED.c:288 (discriminator 1)
    1ddc:	1c3b      	adds	r3, r7, #0
    1dde:	330e      	adds	r3, #14
    1de0:	781b      	ldrb	r3, [r3, #0]
    1de2:	b25b      	sxtb	r3, r3
    1de4:	2b00      	cmp	r3, #0
    1de6:	daed      	bge.n	1dc4 <OLED_Fill+0x3c>
E:\BOBO_KDS\KL25_DS18_GPRS\Debug/../06_App_Component/OLED/OLED.c:283

void OLED_Fill(uint_8 bmp_data)
{
	uint_8 y,x;

	for(y=0;y<8;y++)
    1de8:	1c3b      	adds	r3, r7, #0
    1dea:	330f      	adds	r3, #15
    1dec:	781a      	ldrb	r2, [r3, #0]
    1dee:	1c3b      	adds	r3, r7, #0
    1df0:	330f      	adds	r3, #15
    1df2:	3201      	adds	r2, #1
    1df4:	701a      	strb	r2, [r3, #0]
E:\BOBO_KDS\KL25_DS18_GPRS\Debug/../06_App_Component/OLED/OLED.c:283 (discriminator 1)
    1df6:	1c3b      	adds	r3, r7, #0
    1df8:	330f      	adds	r3, #15
    1dfa:	781b      	ldrb	r3, [r3, #0]
    1dfc:	2b07      	cmp	r3, #7
    1dfe:	d9ce      	bls.n	1d9e <OLED_Fill+0x16>
E:\BOBO_KDS\KL25_DS18_GPRS\Debug/../06_App_Component/OLED/OLED.c:290
		OLED_WrCmd(0xb0+y);
		OLED_WrCmd(0x01);
		OLED_WrCmd(0x10);
		for(x=0;x<X_WIDTH;x++)	OLED_WrDat(bmp_data);
	}
}
    1e00:	46bd      	mov	sp, r7
    1e02:	b004      	add	sp, #16
    1e04:	bd80      	pop	{r7, pc}
    1e06:	46c0      	nop			; (mov r8, r8)

00001e08 <OLED_Init>:
OLED_Init():
E:\BOBO_KDS\KL25_DS18_GPRS\Debug/../06_App_Component/OLED/OLED.c:294


void OLED_Init(void)
{
    1e08:	b580      	push	{r7, lr}
    1e0a:	af00      	add	r7, sp, #0
E:\BOBO_KDS\KL25_DS18_GPRS\Debug/../06_App_Component/OLED/OLED.c:295
		gpio_init (OLED_SCL_PIN, 1,1);
    1e0c:	2388      	movs	r3, #136	; 0x88
    1e0e:	005b      	lsls	r3, r3, #1
    1e10:	1c18      	adds	r0, r3, #0
    1e12:	2101      	movs	r1, #1
    1e14:	2201      	movs	r2, #1
    1e16:	f000 ffc7 	bl	2da8 <gpio_init>
E:\BOBO_KDS\KL25_DS18_GPRS\Debug/../06_App_Component/OLED/OLED.c:296
        gpio_init (OLED_SDA_PIN, 1,0);
    1e1a:	2385      	movs	r3, #133	; 0x85
    1e1c:	005b      	lsls	r3, r3, #1
    1e1e:	1c18      	adds	r0, r3, #0
    1e20:	2101      	movs	r1, #1
    1e22:	2200      	movs	r2, #0
    1e24:	f000 ffc0 	bl	2da8 <gpio_init>
E:\BOBO_KDS\KL25_DS18_GPRS\Debug/../06_App_Component/OLED/OLED.c:297
        gpio_init (OLED_RST_PIN, 1,1);
    1e28:	2384      	movs	r3, #132	; 0x84
    1e2a:	005b      	lsls	r3, r3, #1
    1e2c:	1c18      	adds	r0, r3, #0
    1e2e:	2101      	movs	r1, #1
    1e30:	2201      	movs	r2, #1
    1e32:	f000 ffb9 	bl	2da8 <gpio_init>
E:\BOBO_KDS\KL25_DS18_GPRS\Debug/../06_App_Component/OLED/OLED.c:298
        gpio_init (OLED_DC_PIN , 1,1);
    1e36:	2381      	movs	r3, #129	; 0x81
    1e38:	005b      	lsls	r3, r3, #1
    1e3a:	1c18      	adds	r0, r3, #0
    1e3c:	2101      	movs	r1, #1
    1e3e:	2201      	movs	r2, #1
    1e40:	f000 ffb2 	bl	2da8 <gpio_init>
E:\BOBO_KDS\KL25_DS18_GPRS\Debug/../06_App_Component/OLED/OLED.c:303




        gpio_pull (OLED_SCL_PIN, 1 );
    1e44:	2388      	movs	r3, #136	; 0x88
    1e46:	005b      	lsls	r3, r3, #1
    1e48:	1c18      	adds	r0, r3, #0
    1e4a:	2101      	movs	r1, #1
    1e4c:	f001 f88a 	bl	2f64 <gpio_pull>
E:\BOBO_KDS\KL25_DS18_GPRS\Debug/../06_App_Component/OLED/OLED.c:304
        gpio_pull (OLED_SDA_PIN, 1 );
    1e50:	2385      	movs	r3, #133	; 0x85
    1e52:	005b      	lsls	r3, r3, #1
    1e54:	1c18      	adds	r0, r3, #0
    1e56:	2101      	movs	r1, #1
    1e58:	f001 f884 	bl	2f64 <gpio_pull>
E:\BOBO_KDS\KL25_DS18_GPRS\Debug/../06_App_Component/OLED/OLED.c:305
        gpio_pull (OLED_RST_PIN, 1);
    1e5c:	2384      	movs	r3, #132	; 0x84
    1e5e:	005b      	lsls	r3, r3, #1
    1e60:	1c18      	adds	r0, r3, #0
    1e62:	2101      	movs	r1, #1
    1e64:	f001 f87e 	bl	2f64 <gpio_pull>
E:\BOBO_KDS\KL25_DS18_GPRS\Debug/../06_App_Component/OLED/OLED.c:306
        gpio_pull (OLED_DC_PIN , 1 );
    1e68:	2381      	movs	r3, #129	; 0x81
    1e6a:	005b      	lsls	r3, r3, #1
    1e6c:	1c18      	adds	r0, r3, #0
    1e6e:	2101      	movs	r1, #1
    1e70:	f001 f878 	bl	2f64 <gpio_pull>
E:\BOBO_KDS\KL25_DS18_GPRS\Debug/../06_App_Component/OLED/OLED.c:309


	OLED_SCL(1);
    1e74:	2388      	movs	r3, #136	; 0x88
    1e76:	005b      	lsls	r3, r3, #1
    1e78:	1c18      	adds	r0, r3, #0
    1e7a:	2101      	movs	r1, #1
    1e7c:	f001 f808 	bl	2e90 <gpio_set>
E:\BOBO_KDS\KL25_DS18_GPRS\Debug/../06_App_Component/OLED/OLED.c:310
	gpio_init (OLED_CS_PIN,1,0);
    1e80:	2380      	movs	r3, #128	; 0x80
    1e82:	005b      	lsls	r3, r3, #1
    1e84:	1c18      	adds	r0, r3, #0
    1e86:	2101      	movs	r1, #1
    1e88:	2200      	movs	r2, #0
    1e8a:	f000 ff8d 	bl	2da8 <gpio_init>
E:\BOBO_KDS\KL25_DS18_GPRS\Debug/../06_App_Component/OLED/OLED.c:311
	OLED_CS(0); //使能信号端，拉低时正常使用
    1e8e:	2380      	movs	r3, #128	; 0x80
    1e90:	005b      	lsls	r3, r3, #1
    1e92:	1c18      	adds	r0, r3, #0
    1e94:	2100      	movs	r1, #0
    1e96:	f000 fffb 	bl	2e90 <gpio_set>
E:\BOBO_KDS\KL25_DS18_GPRS\Debug/../06_App_Component/OLED/OLED.c:312
	gpio_init (OLED_RST_PIN,1,1);
    1e9a:	2384      	movs	r3, #132	; 0x84
    1e9c:	005b      	lsls	r3, r3, #1
    1e9e:	1c18      	adds	r0, r3, #0
    1ea0:	2101      	movs	r1, #1
    1ea2:	2201      	movs	r2, #1
    1ea4:	f000 ff80 	bl	2da8 <gpio_init>
E:\BOBO_KDS\KL25_DS18_GPRS\Debug/../06_App_Component/OLED/OLED.c:313
	OLED_RST(0);
    1ea8:	2384      	movs	r3, #132	; 0x84
    1eaa:	005b      	lsls	r3, r3, #1
    1eac:	1c18      	adds	r0, r3, #0
    1eae:	2100      	movs	r1, #0
    1eb0:	f000 ffee 	bl	2e90 <gpio_set>
E:\BOBO_KDS\KL25_DS18_GPRS\Debug/../06_App_Component/OLED/OLED.c:314
	OLED_DLY_ms(50);
    1eb4:	2032      	movs	r0, #50	; 0x32
    1eb6:	f7ff fefd 	bl	1cb4 <OLED_DLY_ms>
E:\BOBO_KDS\KL25_DS18_GPRS\Debug/../06_App_Component/OLED/OLED.c:315
	OLED_RST(1);
    1eba:	2384      	movs	r3, #132	; 0x84
    1ebc:	005b      	lsls	r3, r3, #1
    1ebe:	1c18      	adds	r0, r3, #0
    1ec0:	2101      	movs	r1, #1
    1ec2:	f000 ffe5 	bl	2e90 <gpio_set>
E:\BOBO_KDS\KL25_DS18_GPRS\Debug/../06_App_Component/OLED/OLED.c:317

	OLED_WrCmd(0xae);//--turn off oled panel
    1ec6:	20ae      	movs	r0, #174	; 0xae
    1ec8:	f7ff fe84 	bl	1bd4 <OLED_WrCmd>
E:\BOBO_KDS\KL25_DS18_GPRS\Debug/../06_App_Component/OLED/OLED.c:318
	OLED_WrCmd(0x00);//---set low column address
    1ecc:	2000      	movs	r0, #0
    1ece:	f7ff fe81 	bl	1bd4 <OLED_WrCmd>
E:\BOBO_KDS\KL25_DS18_GPRS\Debug/../06_App_Component/OLED/OLED.c:319
	OLED_WrCmd(0x10);//---set high column address
    1ed2:	2010      	movs	r0, #16
    1ed4:	f7ff fe7e 	bl	1bd4 <OLED_WrCmd>
E:\BOBO_KDS\KL25_DS18_GPRS\Debug/../06_App_Component/OLED/OLED.c:320
	OLED_WrCmd(0x40);//--set start line address  Set Mapping RAM Display Start Line (0x00~0x3F)
    1ed8:	2040      	movs	r0, #64	; 0x40
    1eda:	f7ff fe7b 	bl	1bd4 <OLED_WrCmd>
E:\BOBO_KDS\KL25_DS18_GPRS\Debug/../06_App_Component/OLED/OLED.c:321
	OLED_WrCmd(0x81);//--set contrast control register
    1ede:	2081      	movs	r0, #129	; 0x81
    1ee0:	f7ff fe78 	bl	1bd4 <OLED_WrCmd>
E:\BOBO_KDS\KL25_DS18_GPRS\Debug/../06_App_Component/OLED/OLED.c:322
	OLED_WrCmd(0xcf); // Set SEG Output Current Brightness
    1ee4:	20cf      	movs	r0, #207	; 0xcf
    1ee6:	f7ff fe75 	bl	1bd4 <OLED_WrCmd>
E:\BOBO_KDS\KL25_DS18_GPRS\Debug/../06_App_Component/OLED/OLED.c:323
	OLED_WrCmd(0xa1);//--Set SEG/Column Mapping     0xa0左右反置 0xa1正常
    1eea:	20a1      	movs	r0, #161	; 0xa1
    1eec:	f7ff fe72 	bl	1bd4 <OLED_WrCmd>
E:\BOBO_KDS\KL25_DS18_GPRS\Debug/../06_App_Component/OLED/OLED.c:324
	OLED_WrCmd(0xc8);//Set COM/Row Scan Direction   0xc0上下反置 0xc8正常
    1ef0:	20c8      	movs	r0, #200	; 0xc8
    1ef2:	f7ff fe6f 	bl	1bd4 <OLED_WrCmd>
E:\BOBO_KDS\KL25_DS18_GPRS\Debug/../06_App_Component/OLED/OLED.c:325
	OLED_WrCmd(0xa6);//--set normal display
    1ef6:	20a6      	movs	r0, #166	; 0xa6
    1ef8:	f7ff fe6c 	bl	1bd4 <OLED_WrCmd>
E:\BOBO_KDS\KL25_DS18_GPRS\Debug/../06_App_Component/OLED/OLED.c:326
	OLED_WrCmd(0xa8);//--set multiplex ratio(1 to 64)
    1efc:	20a8      	movs	r0, #168	; 0xa8
    1efe:	f7ff fe69 	bl	1bd4 <OLED_WrCmd>
E:\BOBO_KDS\KL25_DS18_GPRS\Debug/../06_App_Component/OLED/OLED.c:327
	OLED_WrCmd(0x3f);//--1/64 duty
    1f02:	203f      	movs	r0, #63	; 0x3f
    1f04:	f7ff fe66 	bl	1bd4 <OLED_WrCmd>
E:\BOBO_KDS\KL25_DS18_GPRS\Debug/../06_App_Component/OLED/OLED.c:328
	OLED_WrCmd(0xd3);//-set display offset	Shift Mapping RAM Counter (0x00~0x3F)
    1f08:	20d3      	movs	r0, #211	; 0xd3
    1f0a:	f7ff fe63 	bl	1bd4 <OLED_WrCmd>
E:\BOBO_KDS\KL25_DS18_GPRS\Debug/../06_App_Component/OLED/OLED.c:329
	OLED_WrCmd(0x00);//-not offset
    1f0e:	2000      	movs	r0, #0
    1f10:	f7ff fe60 	bl	1bd4 <OLED_WrCmd>
E:\BOBO_KDS\KL25_DS18_GPRS\Debug/../06_App_Component/OLED/OLED.c:330
	OLED_WrCmd(0xd5);//--set display clock divide ratio/oscillator frequency
    1f14:	20d5      	movs	r0, #213	; 0xd5
    1f16:	f7ff fe5d 	bl	1bd4 <OLED_WrCmd>
E:\BOBO_KDS\KL25_DS18_GPRS\Debug/../06_App_Component/OLED/OLED.c:331
	OLED_WrCmd(0x80);//--set divide ratio, Set Clock as 100 Frames/Sec
    1f1a:	2080      	movs	r0, #128	; 0x80
    1f1c:	f7ff fe5a 	bl	1bd4 <OLED_WrCmd>
E:\BOBO_KDS\KL25_DS18_GPRS\Debug/../06_App_Component/OLED/OLED.c:332
	OLED_WrCmd(0xd9);//--set pre-charge period
    1f20:	20d9      	movs	r0, #217	; 0xd9
    1f22:	f7ff fe57 	bl	1bd4 <OLED_WrCmd>
E:\BOBO_KDS\KL25_DS18_GPRS\Debug/../06_App_Component/OLED/OLED.c:333
	OLED_WrCmd(0xf1);//Set Pre-Charge as 15 Clocks & Discharge as 1 Clock
    1f26:	20f1      	movs	r0, #241	; 0xf1
    1f28:	f7ff fe54 	bl	1bd4 <OLED_WrCmd>
E:\BOBO_KDS\KL25_DS18_GPRS\Debug/../06_App_Component/OLED/OLED.c:334
	OLED_WrCmd(0xda);//--set com pins hardware configuration
    1f2c:	20da      	movs	r0, #218	; 0xda
    1f2e:	f7ff fe51 	bl	1bd4 <OLED_WrCmd>
E:\BOBO_KDS\KL25_DS18_GPRS\Debug/../06_App_Component/OLED/OLED.c:335
	OLED_WrCmd(0x12);
    1f32:	2012      	movs	r0, #18
    1f34:	f7ff fe4e 	bl	1bd4 <OLED_WrCmd>
E:\BOBO_KDS\KL25_DS18_GPRS\Debug/../06_App_Component/OLED/OLED.c:336
	OLED_WrCmd(0xdb);//--set vcomh
    1f38:	20db      	movs	r0, #219	; 0xdb
    1f3a:	f7ff fe4b 	bl	1bd4 <OLED_WrCmd>
E:\BOBO_KDS\KL25_DS18_GPRS\Debug/../06_App_Component/OLED/OLED.c:337
	OLED_WrCmd(0x40);//Set VCOM Deselect Level
    1f3e:	2040      	movs	r0, #64	; 0x40
    1f40:	f7ff fe48 	bl	1bd4 <OLED_WrCmd>
E:\BOBO_KDS\KL25_DS18_GPRS\Debug/../06_App_Component/OLED/OLED.c:338
	OLED_WrCmd(0x20);//-Set Page Addressing Mode (0x00/0x01/0x02)
    1f44:	2020      	movs	r0, #32
    1f46:	f7ff fe45 	bl	1bd4 <OLED_WrCmd>
E:\BOBO_KDS\KL25_DS18_GPRS\Debug/../06_App_Component/OLED/OLED.c:339
	OLED_WrCmd(0x02);//
    1f4a:	2002      	movs	r0, #2
    1f4c:	f7ff fe42 	bl	1bd4 <OLED_WrCmd>
E:\BOBO_KDS\KL25_DS18_GPRS\Debug/../06_App_Component/OLED/OLED.c:340
	OLED_WrCmd(0x8d);//--set Charge Pump enable/disable
    1f50:	208d      	movs	r0, #141	; 0x8d
    1f52:	f7ff fe3f 	bl	1bd4 <OLED_WrCmd>
E:\BOBO_KDS\KL25_DS18_GPRS\Debug/../06_App_Component/OLED/OLED.c:341
	OLED_WrCmd(0x14);//--set(0x10) disable
    1f56:	2014      	movs	r0, #20
    1f58:	f7ff fe3c 	bl	1bd4 <OLED_WrCmd>
E:\BOBO_KDS\KL25_DS18_GPRS\Debug/../06_App_Component/OLED/OLED.c:342
	OLED_WrCmd(0xa4);// Disable Entire Display On (0xa4/0xa5)
    1f5c:	20a4      	movs	r0, #164	; 0xa4
    1f5e:	f7ff fe39 	bl	1bd4 <OLED_WrCmd>
E:\BOBO_KDS\KL25_DS18_GPRS\Debug/../06_App_Component/OLED/OLED.c:343
	OLED_WrCmd(0xa6);// Disable Inverse Display On (0xa6/a7)
    1f62:	20a6      	movs	r0, #166	; 0xa6
    1f64:	f7ff fe36 	bl	1bd4 <OLED_WrCmd>
E:\BOBO_KDS\KL25_DS18_GPRS\Debug/../06_App_Component/OLED/OLED.c:344
	OLED_WrCmd(0xaf);//--turn on oled panel
    1f68:	20af      	movs	r0, #175	; 0xaf
    1f6a:	f7ff fe33 	bl	1bd4 <OLED_WrCmd>
E:\BOBO_KDS\KL25_DS18_GPRS\Debug/../06_App_Component/OLED/OLED.c:345
	OLED_Fill(0x00);  //初始清屏
    1f6e:	2000      	movs	r0, #0
    1f70:	f7ff ff0a 	bl	1d88 <OLED_Fill>
E:\BOBO_KDS\KL25_DS18_GPRS\Debug/../06_App_Component/OLED/OLED.c:346
	OLED_Set_Pos(0,0);
    1f74:	2000      	movs	r0, #0
    1f76:	2100      	movs	r1, #0
    1f78:	f7ff fe72 	bl	1c60 <OLED_Set_Pos>
E:\BOBO_KDS\KL25_DS18_GPRS\Debug/../06_App_Component/OLED/OLED.c:347
}
    1f7c:	46bd      	mov	sp, r7
    1f7e:	bd80      	pop	{r7, pc}

00001f80 <OLED_P6x8Str>:
OLED_P6x8Str():
E:\BOBO_KDS\KL25_DS18_GPRS\Debug/../06_App_Component/OLED/OLED.c:389
	OLED_WrCmd((x&0x0f)|0x00);
	OLED_WrDat(data1);
}


void OLED_P6x8Str(uint_8 x,uint_8 y,uint_8 ch[]){
    1f80:	b580      	push	{r7, lr}
    1f82:	b084      	sub	sp, #16
    1f84:	af00      	add	r7, sp, #0
    1f86:	603a      	str	r2, [r7, #0]
    1f88:	1dfb      	adds	r3, r7, #7
    1f8a:	1c02      	adds	r2, r0, #0
    1f8c:	701a      	strb	r2, [r3, #0]
    1f8e:	1dbb      	adds	r3, r7, #6
    1f90:	1c0a      	adds	r2, r1, #0
    1f92:	701a      	strb	r2, [r3, #0]
E:\BOBO_KDS\KL25_DS18_GPRS\Debug/../06_App_Component/OLED/OLED.c:390
	uint_8 c=0,i=0,j=0;
    1f94:	1c3b      	adds	r3, r7, #0
    1f96:	330d      	adds	r3, #13
    1f98:	2200      	movs	r2, #0
    1f9a:	701a      	strb	r2, [r3, #0]
    1f9c:	1c3b      	adds	r3, r7, #0
    1f9e:	330f      	adds	r3, #15
    1fa0:	2200      	movs	r2, #0
    1fa2:	701a      	strb	r2, [r3, #0]
    1fa4:	1c3b      	adds	r3, r7, #0
    1fa6:	330e      	adds	r3, #14
    1fa8:	2200      	movs	r2, #0
    1faa:	701a      	strb	r2, [r3, #0]
E:\BOBO_KDS\KL25_DS18_GPRS\Debug/../06_App_Component/OLED/OLED.c:391
		while (ch[j]!='\0')
    1fac:	e04a      	b.n	2044 <OLED_P6x8Str+0xc4>
E:\BOBO_KDS\KL25_DS18_GPRS\Debug/../06_App_Component/OLED/OLED.c:393
		{
		  	c =ch[j]-32;
    1fae:	1c3b      	adds	r3, r7, #0
    1fb0:	330e      	adds	r3, #14
    1fb2:	781b      	ldrb	r3, [r3, #0]
    1fb4:	683a      	ldr	r2, [r7, #0]
    1fb6:	18d3      	adds	r3, r2, r3
    1fb8:	781a      	ldrb	r2, [r3, #0]
    1fba:	1c3b      	adds	r3, r7, #0
    1fbc:	330d      	adds	r3, #13
    1fbe:	3a20      	subs	r2, #32
    1fc0:	701a      	strb	r2, [r3, #0]
E:\BOBO_KDS\KL25_DS18_GPRS\Debug/../06_App_Component/OLED/OLED.c:394
		  	if(x>126){x=0;y++;}
    1fc2:	1dfb      	adds	r3, r7, #7
    1fc4:	781b      	ldrb	r3, [r3, #0]
    1fc6:	2b7e      	cmp	r3, #126	; 0x7e
    1fc8:	d907      	bls.n	1fda <OLED_P6x8Str+0x5a>
E:\BOBO_KDS\KL25_DS18_GPRS\Debug/../06_App_Component/OLED/OLED.c:394 (discriminator 1)
    1fca:	1dfb      	adds	r3, r7, #7
    1fcc:	2200      	movs	r2, #0
    1fce:	701a      	strb	r2, [r3, #0]
    1fd0:	1dbb      	adds	r3, r7, #6
    1fd2:	781a      	ldrb	r2, [r3, #0]
    1fd4:	1dbb      	adds	r3, r7, #6
    1fd6:	3201      	adds	r2, #1
    1fd8:	701a      	strb	r2, [r3, #0]
E:\BOBO_KDS\KL25_DS18_GPRS\Debug/../06_App_Component/OLED/OLED.c:395
		  	OLED_Set_Pos(x,y);
    1fda:	1dfb      	adds	r3, r7, #7
    1fdc:	781a      	ldrb	r2, [r3, #0]
    1fde:	1dbb      	adds	r3, r7, #6
    1fe0:	781b      	ldrb	r3, [r3, #0]
    1fe2:	1c10      	adds	r0, r2, #0
    1fe4:	1c19      	adds	r1, r3, #0
    1fe6:	f7ff fe3b 	bl	1c60 <OLED_Set_Pos>
E:\BOBO_KDS\KL25_DS18_GPRS\Debug/../06_App_Component/OLED/OLED.c:396
		  	for(i=0;i<6;i++)	OLED_WrDat(F6x8[c][i]);
    1fea:	1c3b      	adds	r3, r7, #0
    1fec:	330f      	adds	r3, #15
    1fee:	2200      	movs	r2, #0
    1ff0:	701a      	strb	r2, [r3, #0]
    1ff2:	e016      	b.n	2022 <OLED_P6x8Str+0xa2>
E:\BOBO_KDS\KL25_DS18_GPRS\Debug/../06_App_Component/OLED/OLED.c:396 (discriminator 2)
    1ff4:	1c3b      	adds	r3, r7, #0
    1ff6:	330d      	adds	r3, #13
    1ff8:	781a      	ldrb	r2, [r3, #0]
    1ffa:	1c3b      	adds	r3, r7, #0
    1ffc:	330f      	adds	r3, #15
    1ffe:	7818      	ldrb	r0, [r3, #0]
    2000:	4916      	ldr	r1, [pc, #88]	; (205c <OLED_P6x8Str+0xdc>)
    2002:	1c13      	adds	r3, r2, #0
    2004:	005b      	lsls	r3, r3, #1
    2006:	189b      	adds	r3, r3, r2
    2008:	005b      	lsls	r3, r3, #1
    200a:	181b      	adds	r3, r3, r0
    200c:	5c5b      	ldrb	r3, [r3, r1]
    200e:	1c18      	adds	r0, r3, #0
    2010:	f7ff fe74 	bl	1cfc <OLED_WrDat>
    2014:	1c3b      	adds	r3, r7, #0
    2016:	330f      	adds	r3, #15
    2018:	781a      	ldrb	r2, [r3, #0]
    201a:	1c3b      	adds	r3, r7, #0
    201c:	330f      	adds	r3, #15
    201e:	3201      	adds	r2, #1
    2020:	701a      	strb	r2, [r3, #0]
E:\BOBO_KDS\KL25_DS18_GPRS\Debug/../06_App_Component/OLED/OLED.c:396 (discriminator 1)
    2022:	1c3b      	adds	r3, r7, #0
    2024:	330f      	adds	r3, #15
    2026:	781b      	ldrb	r3, [r3, #0]
    2028:	2b05      	cmp	r3, #5
    202a:	d9e3      	bls.n	1ff4 <OLED_P6x8Str+0x74>
E:\BOBO_KDS\KL25_DS18_GPRS\Debug/../06_App_Component/OLED/OLED.c:397
		  	x+=6;
    202c:	1dfb      	adds	r3, r7, #7
    202e:	1dfa      	adds	r2, r7, #7
    2030:	7812      	ldrb	r2, [r2, #0]
    2032:	3206      	adds	r2, #6
    2034:	701a      	strb	r2, [r3, #0]
E:\BOBO_KDS\KL25_DS18_GPRS\Debug/../06_App_Component/OLED/OLED.c:398
		  	j++;
    2036:	1c3b      	adds	r3, r7, #0
    2038:	330e      	adds	r3, #14
    203a:	781a      	ldrb	r2, [r3, #0]
    203c:	1c3b      	adds	r3, r7, #0
    203e:	330e      	adds	r3, #14
    2040:	3201      	adds	r2, #1
    2042:	701a      	strb	r2, [r3, #0]
E:\BOBO_KDS\KL25_DS18_GPRS\Debug/../06_App_Component/OLED/OLED.c:391 (discriminator 1)
}


void OLED_P6x8Str(uint_8 x,uint_8 y,uint_8 ch[]){
	uint_8 c=0,i=0,j=0;
		while (ch[j]!='\0')
    2044:	1c3b      	adds	r3, r7, #0
    2046:	330e      	adds	r3, #14
    2048:	781b      	ldrb	r3, [r3, #0]
    204a:	683a      	ldr	r2, [r7, #0]
    204c:	18d3      	adds	r3, r2, r3
    204e:	781b      	ldrb	r3, [r3, #0]
    2050:	2b00      	cmp	r3, #0
    2052:	d1ac      	bne.n	1fae <OLED_P6x8Str+0x2e>
E:\BOBO_KDS\KL25_DS18_GPRS\Debug/../06_App_Component/OLED/OLED.c:400
		  	OLED_Set_Pos(x,y);
		  	for(i=0;i<6;i++)	OLED_WrDat(F6x8[c][i]);
		  	x+=6;
		  	j++;
		}
}
    2054:	46bd      	mov	sp, r7
    2056:	b004      	add	sp, #16
    2058:	bd80      	pop	{r7, pc}
    205a:	46c0      	nop			; (mov r8, r8)
    205c:	000034cc 	.word	0x000034cc

00002060 <OLED_P8x16Str>:
OLED_P8x16Str():
E:\BOBO_KDS\KL25_DS18_GPRS\Debug/../06_App_Component/OLED/OLED.c:411
//  @return     void
//  @since      v1.0
//  Sample usage:
//-------------------------------------------------------------------------------------------------------------------
void OLED_P8x16Str(uint_8 x,uint_8 y,uint_8 ch[])
{
    2060:	b580      	push	{r7, lr}
    2062:	b084      	sub	sp, #16
    2064:	af00      	add	r7, sp, #0
    2066:	603a      	str	r2, [r7, #0]
    2068:	1dfb      	adds	r3, r7, #7
    206a:	1c02      	adds	r2, r0, #0
    206c:	701a      	strb	r2, [r3, #0]
    206e:	1dbb      	adds	r3, r7, #6
    2070:	1c0a      	adds	r2, r1, #0
    2072:	701a      	strb	r2, [r3, #0]
E:\BOBO_KDS\KL25_DS18_GPRS\Debug/../06_App_Component/OLED/OLED.c:412
	uint_8 c=0,i=0,j=0;
    2074:	1c3b      	adds	r3, r7, #0
    2076:	330d      	adds	r3, #13
    2078:	2200      	movs	r2, #0
    207a:	701a      	strb	r2, [r3, #0]
    207c:	1c3b      	adds	r3, r7, #0
    207e:	330f      	adds	r3, #15
    2080:	2200      	movs	r2, #0
    2082:	701a      	strb	r2, [r3, #0]
    2084:	1c3b      	adds	r3, r7, #0
    2086:	330e      	adds	r3, #14
    2088:	2200      	movs	r2, #0
    208a:	701a      	strb	r2, [r3, #0]
E:\BOBO_KDS\KL25_DS18_GPRS\Debug/../06_App_Component/OLED/OLED.c:414

	while (ch[j]!='\0')
    208c:	e070      	b.n	2170 <OLED_P8x16Str+0x110>
E:\BOBO_KDS\KL25_DS18_GPRS\Debug/../06_App_Component/OLED/OLED.c:416
	{
	  	c =ch[j]-32;
    208e:	1c3b      	adds	r3, r7, #0
    2090:	330e      	adds	r3, #14
    2092:	781b      	ldrb	r3, [r3, #0]
    2094:	683a      	ldr	r2, [r7, #0]
    2096:	18d3      	adds	r3, r2, r3
    2098:	781a      	ldrb	r2, [r3, #0]
    209a:	1c3b      	adds	r3, r7, #0
    209c:	330d      	adds	r3, #13
    209e:	3a20      	subs	r2, #32
    20a0:	701a      	strb	r2, [r3, #0]
E:\BOBO_KDS\KL25_DS18_GPRS\Debug/../06_App_Component/OLED/OLED.c:417
	  	if(x>120){x=0;y++;}
    20a2:	1dfb      	adds	r3, r7, #7
    20a4:	781b      	ldrb	r3, [r3, #0]
    20a6:	2b78      	cmp	r3, #120	; 0x78
    20a8:	d907      	bls.n	20ba <OLED_P8x16Str+0x5a>
E:\BOBO_KDS\KL25_DS18_GPRS\Debug/../06_App_Component/OLED/OLED.c:417 (discriminator 1)
    20aa:	1dfb      	adds	r3, r7, #7
    20ac:	2200      	movs	r2, #0
    20ae:	701a      	strb	r2, [r3, #0]
    20b0:	1dbb      	adds	r3, r7, #6
    20b2:	781a      	ldrb	r2, [r3, #0]
    20b4:	1dbb      	adds	r3, r7, #6
    20b6:	3201      	adds	r2, #1
    20b8:	701a      	strb	r2, [r3, #0]
E:\BOBO_KDS\KL25_DS18_GPRS\Debug/../06_App_Component/OLED/OLED.c:419

	  	OLED_Set_Pos(x,y);
    20ba:	1dfb      	adds	r3, r7, #7
    20bc:	781a      	ldrb	r2, [r3, #0]
    20be:	1dbb      	adds	r3, r7, #6
    20c0:	781b      	ldrb	r3, [r3, #0]
    20c2:	1c10      	adds	r0, r2, #0
    20c4:	1c19      	adds	r1, r3, #0
    20c6:	f7ff fdcb 	bl	1c60 <OLED_Set_Pos>
E:\BOBO_KDS\KL25_DS18_GPRS\Debug/../06_App_Component/OLED/OLED.c:420
	  	for(i=0;i<8;i++)	OLED_WrDat(F8X16[c*16+i]);
    20ca:	1c3b      	adds	r3, r7, #0
    20cc:	330f      	adds	r3, #15
    20ce:	2200      	movs	r2, #0
    20d0:	701a      	strb	r2, [r3, #0]
    20d2:	e013      	b.n	20fc <OLED_P8x16Str+0x9c>
E:\BOBO_KDS\KL25_DS18_GPRS\Debug/../06_App_Component/OLED/OLED.c:420 (discriminator 2)
    20d4:	1c3b      	adds	r3, r7, #0
    20d6:	330d      	adds	r3, #13
    20d8:	781b      	ldrb	r3, [r3, #0]
    20da:	011a      	lsls	r2, r3, #4
    20dc:	1c3b      	adds	r3, r7, #0
    20de:	330f      	adds	r3, #15
    20e0:	781b      	ldrb	r3, [r3, #0]
    20e2:	18d3      	adds	r3, r2, r3
    20e4:	4a28      	ldr	r2, [pc, #160]	; (2188 <OLED_P8x16Str+0x128>)
    20e6:	5cd3      	ldrb	r3, [r2, r3]
    20e8:	1c18      	adds	r0, r3, #0
    20ea:	f7ff fe07 	bl	1cfc <OLED_WrDat>
    20ee:	1c3b      	adds	r3, r7, #0
    20f0:	330f      	adds	r3, #15
    20f2:	781a      	ldrb	r2, [r3, #0]
    20f4:	1c3b      	adds	r3, r7, #0
    20f6:	330f      	adds	r3, #15
    20f8:	3201      	adds	r2, #1
    20fa:	701a      	strb	r2, [r3, #0]
E:\BOBO_KDS\KL25_DS18_GPRS\Debug/../06_App_Component/OLED/OLED.c:420 (discriminator 1)
    20fc:	1c3b      	adds	r3, r7, #0
    20fe:	330f      	adds	r3, #15
    2100:	781b      	ldrb	r3, [r3, #0]
    2102:	2b07      	cmp	r3, #7
    2104:	d9e6      	bls.n	20d4 <OLED_P8x16Str+0x74>
E:\BOBO_KDS\KL25_DS18_GPRS\Debug/../06_App_Component/OLED/OLED.c:422

	  	OLED_Set_Pos(x,y+1);
    2106:	1dbb      	adds	r3, r7, #6
    2108:	781b      	ldrb	r3, [r3, #0]
    210a:	3301      	adds	r3, #1
    210c:	b2db      	uxtb	r3, r3
    210e:	1dfa      	adds	r2, r7, #7
    2110:	7812      	ldrb	r2, [r2, #0]
    2112:	1c10      	adds	r0, r2, #0
    2114:	1c19      	adds	r1, r3, #0
    2116:	f7ff fda3 	bl	1c60 <OLED_Set_Pos>
E:\BOBO_KDS\KL25_DS18_GPRS\Debug/../06_App_Component/OLED/OLED.c:423
	  	for(i=0;i<8;i++)	OLED_WrDat(F8X16[c*16+i+8]);
    211a:	1c3b      	adds	r3, r7, #0
    211c:	330f      	adds	r3, #15
    211e:	2200      	movs	r2, #0
    2120:	701a      	strb	r2, [r3, #0]
    2122:	e014      	b.n	214e <OLED_P8x16Str+0xee>
E:\BOBO_KDS\KL25_DS18_GPRS\Debug/../06_App_Component/OLED/OLED.c:423 (discriminator 2)
    2124:	1c3b      	adds	r3, r7, #0
    2126:	330d      	adds	r3, #13
    2128:	781b      	ldrb	r3, [r3, #0]
    212a:	011a      	lsls	r2, r3, #4
    212c:	1c3b      	adds	r3, r7, #0
    212e:	330f      	adds	r3, #15
    2130:	781b      	ldrb	r3, [r3, #0]
    2132:	18d3      	adds	r3, r2, r3
    2134:	3308      	adds	r3, #8
    2136:	4a14      	ldr	r2, [pc, #80]	; (2188 <OLED_P8x16Str+0x128>)
    2138:	5cd3      	ldrb	r3, [r2, r3]
    213a:	1c18      	adds	r0, r3, #0
    213c:	f7ff fdde 	bl	1cfc <OLED_WrDat>
    2140:	1c3b      	adds	r3, r7, #0
    2142:	330f      	adds	r3, #15
    2144:	781a      	ldrb	r2, [r3, #0]
    2146:	1c3b      	adds	r3, r7, #0
    2148:	330f      	adds	r3, #15
    214a:	3201      	adds	r2, #1
    214c:	701a      	strb	r2, [r3, #0]
E:\BOBO_KDS\KL25_DS18_GPRS\Debug/../06_App_Component/OLED/OLED.c:423 (discriminator 1)
    214e:	1c3b      	adds	r3, r7, #0
    2150:	330f      	adds	r3, #15
    2152:	781b      	ldrb	r3, [r3, #0]
    2154:	2b07      	cmp	r3, #7
    2156:	d9e5      	bls.n	2124 <OLED_P8x16Str+0xc4>
E:\BOBO_KDS\KL25_DS18_GPRS\Debug/../06_App_Component/OLED/OLED.c:425

	  	x+=8;
    2158:	1dfb      	adds	r3, r7, #7
    215a:	1dfa      	adds	r2, r7, #7
    215c:	7812      	ldrb	r2, [r2, #0]
    215e:	3208      	adds	r2, #8
    2160:	701a      	strb	r2, [r3, #0]
E:\BOBO_KDS\KL25_DS18_GPRS\Debug/../06_App_Component/OLED/OLED.c:426
	  	j++;
    2162:	1c3b      	adds	r3, r7, #0
    2164:	330e      	adds	r3, #14
    2166:	781a      	ldrb	r2, [r3, #0]
    2168:	1c3b      	adds	r3, r7, #0
    216a:	330e      	adds	r3, #14
    216c:	3201      	adds	r2, #1
    216e:	701a      	strb	r2, [r3, #0]
E:\BOBO_KDS\KL25_DS18_GPRS\Debug/../06_App_Component/OLED/OLED.c:414 (discriminator 1)
//-------------------------------------------------------------------------------------------------------------------
void OLED_P8x16Str(uint_8 x,uint_8 y,uint_8 ch[])
{
	uint_8 c=0,i=0,j=0;

	while (ch[j]!='\0')
    2170:	1c3b      	adds	r3, r7, #0
    2172:	330e      	adds	r3, #14
    2174:	781b      	ldrb	r3, [r3, #0]
    2176:	683a      	ldr	r2, [r7, #0]
    2178:	18d3      	adds	r3, r2, r3
    217a:	781b      	ldrb	r3, [r3, #0]
    217c:	2b00      	cmp	r3, #0
    217e:	d186      	bne.n	208e <OLED_P8x16Str+0x2e>
E:\BOBO_KDS\KL25_DS18_GPRS\Debug/../06_App_Component/OLED/OLED.c:428
	  	for(i=0;i<8;i++)	OLED_WrDat(F8X16[c*16+i+8]);

	  	x+=8;
	  	j++;
	}
}
    2180:	46bd      	mov	sp, r7
    2182:	b004      	add	sp, #16
    2184:	bd80      	pop	{r7, pc}
    2186:	46c0      	nop			; (mov r8, r8)
    2188:	000036f4 	.word	0x000036f4

0000218c <OLED_HEXACSII>:
OLED_HEXACSII():
E:\BOBO_KDS\KL25_DS18_GPRS\Debug/../06_App_Component/OLED/OLED.c:451
}



void OLED_HEXACSII(uint_16 hex,uint_8* Print)
{
    218c:	b590      	push	{r4, r7, lr}
    218e:	b085      	sub	sp, #20
    2190:	af00      	add	r7, sp, #0
    2192:	1c02      	adds	r2, r0, #0
    2194:	6039      	str	r1, [r7, #0]
    2196:	1dbb      	adds	r3, r7, #6
    2198:	801a      	strh	r2, [r3, #0]
E:\BOBO_KDS\KL25_DS18_GPRS\Debug/../06_App_Component/OLED/OLED.c:454
	uint_8 hexcheck ;
	uint_8 TEMP ;
	TEMP = 6 ;
    219a:	1c3b      	adds	r3, r7, #0
    219c:	330f      	adds	r3, #15
    219e:	2206      	movs	r2, #6
    21a0:	701a      	strb	r2, [r3, #0]
E:\BOBO_KDS\KL25_DS18_GPRS\Debug/../06_App_Component/OLED/OLED.c:455
	Print[TEMP ]='\0';
    21a2:	1c3b      	adds	r3, r7, #0
    21a4:	330f      	adds	r3, #15
    21a6:	781b      	ldrb	r3, [r3, #0]
    21a8:	683a      	ldr	r2, [r7, #0]
    21aa:	18d3      	adds	r3, r2, r3
    21ac:	2200      	movs	r2, #0
    21ae:	701a      	strb	r2, [r3, #0]
E:\BOBO_KDS\KL25_DS18_GPRS\Debug/../06_App_Component/OLED/OLED.c:456
	while(TEMP)
    21b0:	e025      	b.n	21fe <OLED_HEXACSII+0x72>
E:\BOBO_KDS\KL25_DS18_GPRS\Debug/../06_App_Component/OLED/OLED.c:458
	{
	  	TEMP -- ;
    21b2:	1c3b      	adds	r3, r7, #0
    21b4:	330f      	adds	r3, #15
    21b6:	781a      	ldrb	r2, [r3, #0]
    21b8:	1c3b      	adds	r3, r7, #0
    21ba:	330f      	adds	r3, #15
    21bc:	3a01      	subs	r2, #1
    21be:	701a      	strb	r2, [r3, #0]
E:\BOBO_KDS\KL25_DS18_GPRS\Debug/../06_App_Component/OLED/OLED.c:459
	  	hexcheck  =  hex%10 ;
    21c0:	1dbb      	adds	r3, r7, #6
    21c2:	881b      	ldrh	r3, [r3, #0]
    21c4:	1c18      	adds	r0, r3, #0
    21c6:	210a      	movs	r1, #10
    21c8:	f7fe fb84 	bl	8d4 <__aeabi_uidivmod>
    21cc:	1c0b      	adds	r3, r1, #0
    21ce:	b29a      	uxth	r2, r3
    21d0:	1c3b      	adds	r3, r7, #0
    21d2:	330e      	adds	r3, #14
    21d4:	701a      	strb	r2, [r3, #0]
E:\BOBO_KDS\KL25_DS18_GPRS\Debug/../06_App_Component/OLED/OLED.c:460
	  	hex   /=10 ;
    21d6:	1dbc      	adds	r4, r7, #6
    21d8:	1dbb      	adds	r3, r7, #6
    21da:	881b      	ldrh	r3, [r3, #0]
    21dc:	1c18      	adds	r0, r3, #0
    21de:	210a      	movs	r1, #10
    21e0:	f7fe fb34 	bl	84c <__aeabi_uidiv>
    21e4:	1c03      	adds	r3, r0, #0
    21e6:	8023      	strh	r3, [r4, #0]
E:\BOBO_KDS\KL25_DS18_GPRS\Debug/../06_App_Component/OLED/OLED.c:461
	  	Print[TEMP ]  = hexcheck + 0x30 ;
    21e8:	1c3b      	adds	r3, r7, #0
    21ea:	330f      	adds	r3, #15
    21ec:	781b      	ldrb	r3, [r3, #0]
    21ee:	683a      	ldr	r2, [r7, #0]
    21f0:	18d3      	adds	r3, r2, r3
    21f2:	1c3a      	adds	r2, r7, #0
    21f4:	320e      	adds	r2, #14
    21f6:	7812      	ldrb	r2, [r2, #0]
    21f8:	3230      	adds	r2, #48	; 0x30
    21fa:	b2d2      	uxtb	r2, r2
    21fc:	701a      	strb	r2, [r3, #0]
E:\BOBO_KDS\KL25_DS18_GPRS\Debug/../06_App_Component/OLED/OLED.c:456 (discriminator 1)
{
	uint_8 hexcheck ;
	uint_8 TEMP ;
	TEMP = 6 ;
	Print[TEMP ]='\0';
	while(TEMP)
    21fe:	1c3b      	adds	r3, r7, #0
    2200:	330f      	adds	r3, #15
    2202:	781b      	ldrb	r3, [r3, #0]
    2204:	2b00      	cmp	r3, #0
    2206:	d1d4      	bne.n	21b2 <OLED_HEXACSII+0x26>
E:\BOBO_KDS\KL25_DS18_GPRS\Debug/../06_App_Component/OLED/OLED.c:464
	  	hexcheck  =  hex%10 ;
	  	hex   /=10 ;
	  	Print[TEMP ]  = hexcheck + 0x30 ;
	}

}
    2208:	46bd      	mov	sp, r7
    220a:	b005      	add	sp, #20
    220c:	bd90      	pop	{r4, r7, pc}
    220e:	46c0      	nop			; (mov r8, r8)

00002210 <OLED_Print_Num>:
OLED_Print_Num():
E:\BOBO_KDS\KL25_DS18_GPRS\Debug/../06_App_Component/OLED/OLED.c:492
		x += 6;
		ch1++;
	}
}
void OLED_Print_Num(uint_8 x, uint_8 y, uint_16 num)
{
    2210:	b580      	push	{r7, lr}
    2212:	b086      	sub	sp, #24
    2214:	af00      	add	r7, sp, #0
    2216:	1dfb      	adds	r3, r7, #7
    2218:	7018      	strb	r0, [r3, #0]
    221a:	1dbb      	adds	r3, r7, #6
    221c:	7019      	strb	r1, [r3, #0]
    221e:	1d3b      	adds	r3, r7, #4
    2220:	801a      	strh	r2, [r3, #0]
E:\BOBO_KDS\KL25_DS18_GPRS\Debug/../06_App_Component/OLED/OLED.c:495
	uint_8 *ch1,ch[7];

	OLED_HEXACSII(num,ch);
    2222:	1d3b      	adds	r3, r7, #4
    2224:	881a      	ldrh	r2, [r3, #0]
    2226:	1c3b      	adds	r3, r7, #0
    2228:	330c      	adds	r3, #12
    222a:	1c10      	adds	r0, r2, #0
    222c:	1c19      	adds	r1, r3, #0
    222e:	f7ff ffad 	bl	218c <OLED_HEXACSII>
E:\BOBO_KDS\KL25_DS18_GPRS\Debug/../06_App_Component/OLED/OLED.c:496
	ch1 =&ch[1];
    2232:	1c3b      	adds	r3, r7, #0
    2234:	330c      	adds	r3, #12
    2236:	3301      	adds	r3, #1
    2238:	617b      	str	r3, [r7, #20]
E:\BOBO_KDS\KL25_DS18_GPRS\Debug/../06_App_Component/OLED/OLED.c:497
	while(*ch1 != '\0')
    223a:	e011      	b.n	2260 <OLED_Print_Num+0x50>
E:\BOBO_KDS\KL25_DS18_GPRS\Debug/../06_App_Component/OLED/OLED.c:499
	{
		OLED_P8x16Str(x, y, ch1);	//显示数字
    223c:	1dfb      	adds	r3, r7, #7
    223e:	7819      	ldrb	r1, [r3, #0]
    2240:	1dbb      	adds	r3, r7, #6
    2242:	781a      	ldrb	r2, [r3, #0]
    2244:	697b      	ldr	r3, [r7, #20]
    2246:	1c08      	adds	r0, r1, #0
    2248:	1c11      	adds	r1, r2, #0
    224a:	1c1a      	adds	r2, r3, #0
    224c:	f7ff ff08 	bl	2060 <OLED_P8x16Str>
E:\BOBO_KDS\KL25_DS18_GPRS\Debug/../06_App_Component/OLED/OLED.c:500
	    x += 8;
    2250:	1dfb      	adds	r3, r7, #7
    2252:	1dfa      	adds	r2, r7, #7
    2254:	7812      	ldrb	r2, [r2, #0]
    2256:	3208      	adds	r2, #8
    2258:	701a      	strb	r2, [r3, #0]
E:\BOBO_KDS\KL25_DS18_GPRS\Debug/../06_App_Component/OLED/OLED.c:501
	   	ch1++;
    225a:	697b      	ldr	r3, [r7, #20]
    225c:	3301      	adds	r3, #1
    225e:	617b      	str	r3, [r7, #20]
E:\BOBO_KDS\KL25_DS18_GPRS\Debug/../06_App_Component/OLED/OLED.c:497 (discriminator 1)
{
	uint_8 *ch1,ch[7];

	OLED_HEXACSII(num,ch);
	ch1 =&ch[1];
	while(*ch1 != '\0')
    2260:	697b      	ldr	r3, [r7, #20]
    2262:	781b      	ldrb	r3, [r3, #0]
    2264:	2b00      	cmp	r3, #0
    2266:	d1e9      	bne.n	223c <OLED_Print_Num+0x2c>
E:\BOBO_KDS\KL25_DS18_GPRS\Debug/../06_App_Component/OLED/OLED.c:503
	{
		OLED_P8x16Str(x, y, ch1);	//显示数字
	    x += 8;
	   	ch1++;
	}
}
    2268:	46bd      	mov	sp, r7
    226a:	b006      	add	sp, #24
    226c:	bd80      	pop	{r7, pc}
    226e:	46c0      	nop			; (mov r8, r8)

00002270 <ds18b20_Init>:
ds18b20_Init():
E:\BOBO_KDS\KL25_DS18_GPRS\Debug/../06_App_Component/DS18B20/DS18B20.c:7

vuint_16 Temperature = 0;

/*初始化DS18B20为GPIO口和输出
 * */
void ds18b20_Init(){
    2270:	b580      	push	{r7, lr}
    2272:	af00      	add	r7, sp, #0
E:\BOBO_KDS\KL25_DS18_GPRS\Debug/../06_App_Component/DS18B20/DS18B20.c:9
//	gpio_init(DS18B20,GPIO_OUTPUT,1);
	PORTC->PCR[17] |= 0x01<<8;
    2274:	4b07      	ldr	r3, [pc, #28]	; (2294 <ds18b20_Init+0x24>)
    2276:	4a07      	ldr	r2, [pc, #28]	; (2294 <ds18b20_Init+0x24>)
    2278:	6c52      	ldr	r2, [r2, #68]	; 0x44
    227a:	2180      	movs	r1, #128	; 0x80
    227c:	0049      	lsls	r1, r1, #1
    227e:	430a      	orrs	r2, r1
    2280:	645a      	str	r2, [r3, #68]	; 0x44
E:\BOBO_KDS\KL25_DS18_GPRS\Debug/../06_App_Component/DS18B20/DS18B20.c:10
	ds18b20_Out();				//输出
    2282:	4b05      	ldr	r3, [pc, #20]	; (2298 <ds18b20_Init+0x28>)
    2284:	4a04      	ldr	r2, [pc, #16]	; (2298 <ds18b20_Init+0x28>)
    2286:	6952      	ldr	r2, [r2, #20]
    2288:	2180      	movs	r1, #128	; 0x80
    228a:	0289      	lsls	r1, r1, #10
    228c:	430a      	orrs	r2, r1
    228e:	615a      	str	r2, [r3, #20]
E:\BOBO_KDS\KL25_DS18_GPRS\Debug/../06_App_Component/DS18B20/DS18B20.c:11
}
    2290:	46bd      	mov	sp, r7
    2292:	bd80      	pop	{r7, pc}
    2294:	4004b000 	.word	0x4004b000
    2298:	400ff080 	.word	0x400ff080

0000229c <ds18b20_Reset>:
ds18b20_Reset():
E:\BOBO_KDS\KL25_DS18_GPRS\Debug/../06_App_Component/DS18B20/DS18B20.c:15

/*DS18B20的复位操作
 * */
void ds18b20_Reset(){
    229c:	b580      	push	{r7, lr}
    229e:	af00      	add	r7, sp, #0
E:\BOBO_KDS\KL25_DS18_GPRS\Debug/../06_App_Component/DS18B20/DS18B20.c:16
	ds18b20_Out();				//输出
    22a0:	4b16      	ldr	r3, [pc, #88]	; (22fc <ds18b20_Reset+0x60>)
    22a2:	4a16      	ldr	r2, [pc, #88]	; (22fc <ds18b20_Reset+0x60>)
    22a4:	6952      	ldr	r2, [r2, #20]
    22a6:	2180      	movs	r1, #128	; 0x80
    22a8:	0289      	lsls	r1, r1, #10
    22aa:	430a      	orrs	r2, r1
    22ac:	615a      	str	r2, [r3, #20]
E:\BOBO_KDS\KL25_DS18_GPRS\Debug/../06_App_Component/DS18B20/DS18B20.c:17
	ds18b20_Low();				//下拉
    22ae:	4b13      	ldr	r3, [pc, #76]	; (22fc <ds18b20_Reset+0x60>)
    22b0:	4a12      	ldr	r2, [pc, #72]	; (22fc <ds18b20_Reset+0x60>)
    22b2:	6811      	ldr	r1, [r2, #0]
    22b4:	4a12      	ldr	r2, [pc, #72]	; (2300 <ds18b20_Reset+0x64>)
    22b6:	400a      	ands	r2, r1
    22b8:	601a      	str	r2, [r3, #0]
E:\BOBO_KDS\KL25_DS18_GPRS\Debug/../06_App_Component/DS18B20/DS18B20.c:18
	delay_us(2178);				//延时500us
    22ba:	4b12      	ldr	r3, [pc, #72]	; (2304 <ds18b20_Reset+0x68>)
    22bc:	1c18      	adds	r0, r3, #0
    22be:	f7ff fc19 	bl	1af4 <delay_us>
E:\BOBO_KDS\KL25_DS18_GPRS\Debug/../06_App_Component/DS18B20/DS18B20.c:20
//	ds18b20_In();				//输入(输入不能释放总线，可能有一些KL25的板子可以，一大部分都不可以)
	ds18b20_High();				//上拉（释放总线）
    22c2:	4b0e      	ldr	r3, [pc, #56]	; (22fc <ds18b20_Reset+0x60>)
    22c4:	4a0d      	ldr	r2, [pc, #52]	; (22fc <ds18b20_Reset+0x60>)
    22c6:	6812      	ldr	r2, [r2, #0]
    22c8:	2180      	movs	r1, #128	; 0x80
    22ca:	0289      	lsls	r1, r1, #10
    22cc:	430a      	orrs	r2, r1
    22ce:	601a      	str	r2, [r3, #0]
E:\BOBO_KDS\KL25_DS18_GPRS\Debug/../06_App_Component/DS18B20/DS18B20.c:21
	delay_us(345);				//延时80us
    22d0:	235a      	movs	r3, #90	; 0x5a
    22d2:	33ff      	adds	r3, #255	; 0xff
    22d4:	1c18      	adds	r0, r3, #0
    22d6:	f7ff fc0d 	bl	1af4 <delay_us>
E:\BOBO_KDS\KL25_DS18_GPRS\Debug/../06_App_Component/DS18B20/DS18B20.c:22
	while(ds18b20_Val());		//延迟到值为拉低值
    22da:	46c0      	nop			; (mov r8, r8)
E:\BOBO_KDS\KL25_DS18_GPRS\Debug/../06_App_Component/DS18B20/DS18B20.c:22 (discriminator 1)
    22dc:	4b07      	ldr	r3, [pc, #28]	; (22fc <ds18b20_Reset+0x60>)
    22de:	691a      	ldr	r2, [r3, #16]
    22e0:	2380      	movs	r3, #128	; 0x80
    22e2:	029b      	lsls	r3, r3, #10
    22e4:	4013      	ands	r3, r2
    22e6:	d1f9      	bne.n	22dc <ds18b20_Reset+0x40>
E:\BOBO_KDS\KL25_DS18_GPRS\Debug/../06_App_Component/DS18B20/DS18B20.c:23
	while(!ds18b20_Val());		//一直延迟到复位结束
    22e8:	46c0      	nop			; (mov r8, r8)
E:\BOBO_KDS\KL25_DS18_GPRS\Debug/../06_App_Component/DS18B20/DS18B20.c:23 (discriminator 1)
    22ea:	4b04      	ldr	r3, [pc, #16]	; (22fc <ds18b20_Reset+0x60>)
    22ec:	691a      	ldr	r2, [r3, #16]
    22ee:	2380      	movs	r3, #128	; 0x80
    22f0:	029b      	lsls	r3, r3, #10
    22f2:	4013      	ands	r3, r2
    22f4:	d0f9      	beq.n	22ea <ds18b20_Reset+0x4e>
E:\BOBO_KDS\KL25_DS18_GPRS\Debug/../06_App_Component/DS18B20/DS18B20.c:24
}
    22f6:	46bd      	mov	sp, r7
    22f8:	bd80      	pop	{r7, pc}
    22fa:	46c0      	nop			; (mov r8, r8)
    22fc:	400ff080 	.word	0x400ff080
    2300:	fffdffff 	.word	0xfffdffff
    2304:	00000882 	.word	0x00000882

00002308 <ds18b20_Write>:
ds18b20_Write():
E:\BOBO_KDS\KL25_DS18_GPRS\Debug/../06_App_Component/DS18B20/DS18B20.c:27
/*DS18B20的写操作
 * */
void ds18b20_Write(uint_8 data){
    2308:	b580      	push	{r7, lr}
    230a:	b084      	sub	sp, #16
    230c:	af00      	add	r7, sp, #0
    230e:	1c02      	adds	r2, r0, #0
    2310:	1dfb      	adds	r3, r7, #7
    2312:	701a      	strb	r2, [r3, #0]
E:\BOBO_KDS\KL25_DS18_GPRS\Debug/../06_App_Component/DS18B20/DS18B20.c:29
	uint_8 i;
	ds18b20_Out();					//输出
    2314:	4b20      	ldr	r3, [pc, #128]	; (2398 <ds18b20_Write+0x90>)
    2316:	4a20      	ldr	r2, [pc, #128]	; (2398 <ds18b20_Write+0x90>)
    2318:	6952      	ldr	r2, [r2, #20]
    231a:	2180      	movs	r1, #128	; 0x80
    231c:	0289      	lsls	r1, r1, #10
    231e:	430a      	orrs	r2, r1
    2320:	615a      	str	r2, [r3, #20]
E:\BOBO_KDS\KL25_DS18_GPRS\Debug/../06_App_Component/DS18B20/DS18B20.c:30
	for(i=0;i<8;i++){
    2322:	1c3b      	adds	r3, r7, #0
    2324:	330f      	adds	r3, #15
    2326:	2200      	movs	r2, #0
    2328:	701a      	strb	r2, [r3, #0]
    232a:	e02d      	b.n	2388 <ds18b20_Write+0x80>
E:\BOBO_KDS\KL25_DS18_GPRS\Debug/../06_App_Component/DS18B20/DS18B20.c:31
		ds18b20_Low();				//下拉
    232c:	4b1a      	ldr	r3, [pc, #104]	; (2398 <ds18b20_Write+0x90>)
    232e:	4a1a      	ldr	r2, [pc, #104]	; (2398 <ds18b20_Write+0x90>)
    2330:	6811      	ldr	r1, [r2, #0]
    2332:	4a1a      	ldr	r2, [pc, #104]	; (239c <ds18b20_Write+0x94>)
    2334:	400a      	ands	r2, r1
    2336:	601a      	str	r2, [r3, #0]
E:\BOBO_KDS\KL25_DS18_GPRS\Debug/../06_App_Component/DS18B20/DS18B20.c:32
		delay_us(40);				//延时10us
    2338:	2028      	movs	r0, #40	; 0x28
    233a:	f7ff fbdb 	bl	1af4 <delay_us>
E:\BOBO_KDS\KL25_DS18_GPRS\Debug/../06_App_Component/DS18B20/DS18B20.c:33
		if(data & 0x01){
    233e:	1dfb      	adds	r3, r7, #7
    2340:	781a      	ldrb	r2, [r3, #0]
    2342:	2301      	movs	r3, #1
    2344:	4013      	ands	r3, r2
    2346:	d006      	beq.n	2356 <ds18b20_Write+0x4e>
E:\BOBO_KDS\KL25_DS18_GPRS\Debug/../06_App_Component/DS18B20/DS18B20.c:34
			ds18b20_High();			//上拉
    2348:	4b13      	ldr	r3, [pc, #76]	; (2398 <ds18b20_Write+0x90>)
    234a:	4a13      	ldr	r2, [pc, #76]	; (2398 <ds18b20_Write+0x90>)
    234c:	6812      	ldr	r2, [r2, #0]
    234e:	2180      	movs	r1, #128	; 0x80
    2350:	0289      	lsls	r1, r1, #10
    2352:	430a      	orrs	r2, r1
    2354:	601a      	str	r2, [r3, #0]
E:\BOBO_KDS\KL25_DS18_GPRS\Debug/../06_App_Component/DS18B20/DS18B20.c:36
		}
		delay_us(192);				//延时45us
    2356:	20c0      	movs	r0, #192	; 0xc0
    2358:	f7ff fbcc 	bl	1af4 <delay_us>
E:\BOBO_KDS\KL25_DS18_GPRS\Debug/../06_App_Component/DS18B20/DS18B20.c:37
		ds18b20_High();				//上拉（释放总线）
    235c:	4b0e      	ldr	r3, [pc, #56]	; (2398 <ds18b20_Write+0x90>)
    235e:	4a0e      	ldr	r2, [pc, #56]	; (2398 <ds18b20_Write+0x90>)
    2360:	6812      	ldr	r2, [r2, #0]
    2362:	2180      	movs	r1, #128	; 0x80
    2364:	0289      	lsls	r1, r1, #10
    2366:	430a      	orrs	r2, r1
    2368:	601a      	str	r2, [r3, #0]
E:\BOBO_KDS\KL25_DS18_GPRS\Debug/../06_App_Component/DS18B20/DS18B20.c:38
		delay_us(12);				//延时1us
    236a:	200c      	movs	r0, #12
    236c:	f7ff fbc2 	bl	1af4 <delay_us>
E:\BOBO_KDS\KL25_DS18_GPRS\Debug/../06_App_Component/DS18B20/DS18B20.c:39
		data >>= 1;
    2370:	1dfb      	adds	r3, r7, #7
    2372:	1dfa      	adds	r2, r7, #7
    2374:	7812      	ldrb	r2, [r2, #0]
    2376:	0852      	lsrs	r2, r2, #1
    2378:	701a      	strb	r2, [r3, #0]
E:\BOBO_KDS\KL25_DS18_GPRS\Debug/../06_App_Component/DS18B20/DS18B20.c:30
/*DS18B20的写操作
 * */
void ds18b20_Write(uint_8 data){
	uint_8 i;
	ds18b20_Out();					//输出
	for(i=0;i<8;i++){
    237a:	1c3b      	adds	r3, r7, #0
    237c:	330f      	adds	r3, #15
    237e:	781a      	ldrb	r2, [r3, #0]
    2380:	1c3b      	adds	r3, r7, #0
    2382:	330f      	adds	r3, #15
    2384:	3201      	adds	r2, #1
    2386:	701a      	strb	r2, [r3, #0]
E:\BOBO_KDS\KL25_DS18_GPRS\Debug/../06_App_Component/DS18B20/DS18B20.c:30 (discriminator 1)
    2388:	1c3b      	adds	r3, r7, #0
    238a:	330f      	adds	r3, #15
    238c:	781b      	ldrb	r3, [r3, #0]
    238e:	2b07      	cmp	r3, #7
    2390:	d9cc      	bls.n	232c <ds18b20_Write+0x24>
E:\BOBO_KDS\KL25_DS18_GPRS\Debug/../06_App_Component/DS18B20/DS18B20.c:41
		delay_us(192);				//延时45us
		ds18b20_High();				//上拉（释放总线）
		delay_us(12);				//延时1us
		data >>= 1;
	}
}
    2392:	46bd      	mov	sp, r7
    2394:	b004      	add	sp, #16
    2396:	bd80      	pop	{r7, pc}
    2398:	400ff080 	.word	0x400ff080
    239c:	fffdffff 	.word	0xfffdffff

000023a0 <ds18b20_ReadByte>:
ds18b20_ReadByte():
E:\BOBO_KDS\KL25_DS18_GPRS\Debug/../06_App_Component/DS18B20/DS18B20.c:45

/*DS18B20的读一个字节操作
 * */
uint_8 ds18b20_ReadByte(){
    23a0:	b580      	push	{r7, lr}
    23a2:	b082      	sub	sp, #8
    23a4:	af00      	add	r7, sp, #0
E:\BOBO_KDS\KL25_DS18_GPRS\Debug/../06_App_Component/DS18B20/DS18B20.c:49
	uint_8 temp;
	uint_8 i;

	for(i=0;i<8;i++){
    23a6:	1dbb      	adds	r3, r7, #6
    23a8:	2200      	movs	r2, #0
    23aa:	701a      	strb	r2, [r3, #0]
    23ac:	e037      	b.n	241e <ds18b20_ReadByte+0x7e>
E:\BOBO_KDS\KL25_DS18_GPRS\Debug/../06_App_Component/DS18B20/DS18B20.c:50
		temp>>=1;
    23ae:	1dfb      	adds	r3, r7, #7
    23b0:	1dfa      	adds	r2, r7, #7
    23b2:	7812      	ldrb	r2, [r2, #0]
    23b4:	0852      	lsrs	r2, r2, #1
    23b6:	701a      	strb	r2, [r3, #0]
E:\BOBO_KDS\KL25_DS18_GPRS\Debug/../06_App_Component/DS18B20/DS18B20.c:51
		ds18b20_Out();			//输出
    23b8:	4b1e      	ldr	r3, [pc, #120]	; (2434 <ds18b20_ReadByte+0x94>)
    23ba:	4a1e      	ldr	r2, [pc, #120]	; (2434 <ds18b20_ReadByte+0x94>)
    23bc:	6952      	ldr	r2, [r2, #20]
    23be:	2180      	movs	r1, #128	; 0x80
    23c0:	0289      	lsls	r1, r1, #10
    23c2:	430a      	orrs	r2, r1
    23c4:	615a      	str	r2, [r3, #20]
E:\BOBO_KDS\KL25_DS18_GPRS\Debug/../06_App_Component/DS18B20/DS18B20.c:52
		ds18b20_High();			//拉高
    23c6:	4b1b      	ldr	r3, [pc, #108]	; (2434 <ds18b20_ReadByte+0x94>)
    23c8:	4a1a      	ldr	r2, [pc, #104]	; (2434 <ds18b20_ReadByte+0x94>)
    23ca:	6812      	ldr	r2, [r2, #0]
    23cc:	2180      	movs	r1, #128	; 0x80
    23ce:	0289      	lsls	r1, r1, #10
    23d0:	430a      	orrs	r2, r1
    23d2:	601a      	str	r2, [r3, #0]
E:\BOBO_KDS\KL25_DS18_GPRS\Debug/../06_App_Component/DS18B20/DS18B20.c:53
		ds18b20_Low();			//拉低
    23d4:	4b17      	ldr	r3, [pc, #92]	; (2434 <ds18b20_ReadByte+0x94>)
    23d6:	4a17      	ldr	r2, [pc, #92]	; (2434 <ds18b20_ReadByte+0x94>)
    23d8:	6811      	ldr	r1, [r2, #0]
    23da:	4a17      	ldr	r2, [pc, #92]	; (2438 <ds18b20_ReadByte+0x98>)
    23dc:	400a      	ands	r2, r1
    23de:	601a      	str	r2, [r3, #0]
E:\BOBO_KDS\KL25_DS18_GPRS\Debug/../06_App_Component/DS18B20/DS18B20.c:55
//		ds18b20_In();			//输入（释放总线）(输入不能释放总线，可能有一些KL25的板子可以，一大部分都不可以)
		ds18b20_High();				//上拉（释放总线）
    23e0:	4b14      	ldr	r3, [pc, #80]	; (2434 <ds18b20_ReadByte+0x94>)
    23e2:	4a14      	ldr	r2, [pc, #80]	; (2434 <ds18b20_ReadByte+0x94>)
    23e4:	6812      	ldr	r2, [r2, #0]
    23e6:	2180      	movs	r1, #128	; 0x80
    23e8:	0289      	lsls	r1, r1, #10
    23ea:	430a      	orrs	r2, r1
    23ec:	601a      	str	r2, [r3, #0]
E:\BOBO_KDS\KL25_DS18_GPRS\Debug/../06_App_Component/DS18B20/DS18B20.c:56
		delay_us(40);			//延时10us
    23ee:	2028      	movs	r0, #40	; 0x28
    23f0:	f7ff fb80 	bl	1af4 <delay_us>
E:\BOBO_KDS\KL25_DS18_GPRS\Debug/../06_App_Component/DS18B20/DS18B20.c:57
		if(ds18b20_Val()){
    23f4:	4b0f      	ldr	r3, [pc, #60]	; (2434 <ds18b20_ReadByte+0x94>)
    23f6:	691a      	ldr	r2, [r3, #16]
    23f8:	2380      	movs	r3, #128	; 0x80
    23fa:	029b      	lsls	r3, r3, #10
    23fc:	4013      	ands	r3, r2
    23fe:	d006      	beq.n	240e <ds18b20_ReadByte+0x6e>
E:\BOBO_KDS\KL25_DS18_GPRS\Debug/../06_App_Component/DS18B20/DS18B20.c:58
			temp|=0x80;
    2400:	1dfb      	adds	r3, r7, #7
    2402:	1dfa      	adds	r2, r7, #7
    2404:	7812      	ldrb	r2, [r2, #0]
    2406:	2180      	movs	r1, #128	; 0x80
    2408:	4249      	negs	r1, r1
    240a:	430a      	orrs	r2, r1
    240c:	701a      	strb	r2, [r3, #0]
E:\BOBO_KDS\KL25_DS18_GPRS\Debug/../06_App_Component/DS18B20/DS18B20.c:60
		}
			delay_us(193);			//延时45us
    240e:	20c1      	movs	r0, #193	; 0xc1
    2410:	f7ff fb70 	bl	1af4 <delay_us>
E:\BOBO_KDS\KL25_DS18_GPRS\Debug/../06_App_Component/DS18B20/DS18B20.c:49
 * */
uint_8 ds18b20_ReadByte(){
	uint_8 temp;
	uint_8 i;

	for(i=0;i<8;i++){
    2414:	1dbb      	adds	r3, r7, #6
    2416:	781a      	ldrb	r2, [r3, #0]
    2418:	1dbb      	adds	r3, r7, #6
    241a:	3201      	adds	r2, #1
    241c:	701a      	strb	r2, [r3, #0]
E:\BOBO_KDS\KL25_DS18_GPRS\Debug/../06_App_Component/DS18B20/DS18B20.c:49 (discriminator 1)
    241e:	1dbb      	adds	r3, r7, #6
    2420:	781b      	ldrb	r3, [r3, #0]
    2422:	2b07      	cmp	r3, #7
    2424:	d9c3      	bls.n	23ae <ds18b20_ReadByte+0xe>
E:\BOBO_KDS\KL25_DS18_GPRS\Debug/../06_App_Component/DS18B20/DS18B20.c:63
			temp|=0x80;
		}
			delay_us(193);			//延时45us

	}
	return temp;
    2426:	1dfb      	adds	r3, r7, #7
    2428:	781b      	ldrb	r3, [r3, #0]
E:\BOBO_KDS\KL25_DS18_GPRS\Debug/../06_App_Component/DS18B20/DS18B20.c:64
}
    242a:	1c18      	adds	r0, r3, #0
    242c:	46bd      	mov	sp, r7
    242e:	b002      	add	sp, #8
    2430:	bd80      	pop	{r7, pc}
    2432:	46c0      	nop			; (mov r8, r8)
    2434:	400ff080 	.word	0x400ff080
    2438:	fffdffff 	.word	0xfffdffff

0000243c <ds18b20_Judge>:
ds18b20_Judge():
E:\BOBO_KDS\KL25_DS18_GPRS\Debug/../06_App_Component/DS18B20/DS18B20.c:68

/*判断温度的正负
 * */
uint_8 ds18b20_Judge(uint_8 T_H){
    243c:	b580      	push	{r7, lr}
    243e:	b082      	sub	sp, #8
    2440:	af00      	add	r7, sp, #0
    2442:	1c02      	adds	r2, r0, #0
    2444:	1dfb      	adds	r3, r7, #7
    2446:	701a      	strb	r2, [r3, #0]
E:\BOBO_KDS\KL25_DS18_GPRS\Debug/../06_App_Component/DS18B20/DS18B20.c:69
	if(T_H & 0xFC){			//测量温度为负值
    2448:	1dfb      	adds	r3, r7, #7
    244a:	781a      	ldrb	r2, [r3, #0]
    244c:	23fc      	movs	r3, #252	; 0xfc
    244e:	4013      	ands	r3, r2
    2450:	d001      	beq.n	2456 <ds18b20_Judge+0x1a>
E:\BOBO_KDS\KL25_DS18_GPRS\Debug/../06_App_Component/DS18B20/DS18B20.c:70
		return 1;
    2452:	2301      	movs	r3, #1
    2454:	e000      	b.n	2458 <ds18b20_Judge+0x1c>
E:\BOBO_KDS\KL25_DS18_GPRS\Debug/../06_App_Component/DS18B20/DS18B20.c:73
	}
	else{					//测量温度为正值
		return 0;
    2456:	2300      	movs	r3, #0
E:\BOBO_KDS\KL25_DS18_GPRS\Debug/../06_App_Component/DS18B20/DS18B20.c:75
	}
}
    2458:	1c18      	adds	r0, r3, #0
    245a:	46bd      	mov	sp, r7
    245c:	b002      	add	sp, #8
    245e:	bd80      	pop	{r7, pc}

00002460 <ds18b20_Read>:
ds18b20_Read():
E:\BOBO_KDS\KL25_DS18_GPRS\Debug/../06_App_Component/DS18B20/DS18B20.c:80


/*读数据操作
 * */
uint_8 ds18b20_Read(){
    2460:	b590      	push	{r4, r7, lr}
    2462:	b083      	sub	sp, #12
    2464:	af00      	add	r7, sp, #0
E:\BOBO_KDS\KL25_DS18_GPRS\Debug/../06_App_Component/DS18B20/DS18B20.c:84
	uint_8 T_H,T_L;
	/*1、开始转换
	 * */
	ds18b20_Reset();
    2466:	f7ff ff19 	bl	229c <ds18b20_Reset>
E:\BOBO_KDS\KL25_DS18_GPRS\Debug/../06_App_Component/DS18B20/DS18B20.c:85
	ds18b20_Write(SKIP_ROM);			//写入跳过ROM的字节命令
    246a:	20cc      	movs	r0, #204	; 0xcc
    246c:	f7ff ff4c 	bl	2308 <ds18b20_Write>
E:\BOBO_KDS\KL25_DS18_GPRS\Debug/../06_App_Component/DS18B20/DS18B20.c:86
	ds18b20_Write(FUNCTION_TURN);		//写入开始转换功能命令
    2470:	2044      	movs	r0, #68	; 0x44
    2472:	f7ff ff49 	bl	2308 <ds18b20_Write>
E:\BOBO_KDS\KL25_DS18_GPRS\Debug/../06_App_Component/DS18B20/DS18B20.c:87
	delay_ms(800);						//延时大约800ms
    2476:	23c8      	movs	r3, #200	; 0xc8
    2478:	009b      	lsls	r3, r3, #2
    247a:	1c18      	adds	r0, r3, #0
    247c:	f7ff fb4c 	bl	1b18 <delay_ms>
E:\BOBO_KDS\KL25_DS18_GPRS\Debug/../06_App_Component/DS18B20/DS18B20.c:90
	/*2、读取暂存数据
	 * */
	ds18b20_Reset();
    2480:	f7ff ff0c 	bl	229c <ds18b20_Reset>
E:\BOBO_KDS\KL25_DS18_GPRS\Debug/../06_App_Component/DS18B20/DS18B20.c:91
	ds18b20_Write(SKIP_ROM);			//写入跳过ROM的字节命令
    2484:	20cc      	movs	r0, #204	; 0xcc
    2486:	f7ff ff3f 	bl	2308 <ds18b20_Write>
E:\BOBO_KDS\KL25_DS18_GPRS\Debug/../06_App_Component/DS18B20/DS18B20.c:92
	ds18b20_Write(READ_DATA);			//写入读暂存的功能命令
    248a:	20be      	movs	r0, #190	; 0xbe
    248c:	f7ff ff3c 	bl	2308 <ds18b20_Write>
E:\BOBO_KDS\KL25_DS18_GPRS\Debug/../06_App_Component/DS18B20/DS18B20.c:93
	T_L = ds18b20_ReadByte();			//读入第零位字节――低八位
    2490:	1dfc      	adds	r4, r7, #7
    2492:	f7ff ff85 	bl	23a0 <ds18b20_ReadByte>
    2496:	1c03      	adds	r3, r0, #0
    2498:	7023      	strb	r3, [r4, #0]
E:\BOBO_KDS\KL25_DS18_GPRS\Debug/../06_App_Component/DS18B20/DS18B20.c:94
	T_H = ds18b20_ReadByte();			//读入第一位字节――高八位
    249a:	1dbc      	adds	r4, r7, #6
    249c:	f7ff ff80 	bl	23a0 <ds18b20_ReadByte>
    24a0:	1c03      	adds	r3, r0, #0
    24a2:	7023      	strb	r3, [r4, #0]
E:\BOBO_KDS\KL25_DS18_GPRS\Debug/../06_App_Component/DS18B20/DS18B20.c:95
	ds18b20_Reset();					//复位操作
    24a4:	f7ff fefa 	bl	229c <ds18b20_Reset>
E:\BOBO_KDS\KL25_DS18_GPRS\Debug/../06_App_Component/DS18B20/DS18B20.c:96
	if(ds18b20_Judge(T_H)){
    24a8:	1dbb      	adds	r3, r7, #6
    24aa:	781b      	ldrb	r3, [r3, #0]
    24ac:	1c18      	adds	r0, r3, #0
    24ae:	f7ff ffc5 	bl	243c <ds18b20_Judge>
    24b2:	1c03      	adds	r3, r0, #0
    24b4:	2b00      	cmp	r3, #0
    24b6:	d01b      	beq.n	24f0 <ds18b20_Read+0x90>
E:\BOBO_KDS\KL25_DS18_GPRS\Debug/../06_App_Component/DS18B20/DS18B20.c:97
		Temperature =(uint_16)(T_H<<8)+(uint_16)T_L;
    24b8:	1dbb      	adds	r3, r7, #6
    24ba:	781b      	ldrb	r3, [r3, #0]
    24bc:	b29b      	uxth	r3, r3
    24be:	021b      	lsls	r3, r3, #8
    24c0:	b29a      	uxth	r2, r3
    24c2:	1dfb      	adds	r3, r7, #7
    24c4:	781b      	ldrb	r3, [r3, #0]
    24c6:	b29b      	uxth	r3, r3
    24c8:	18d3      	adds	r3, r2, r3
    24ca:	b29a      	uxth	r2, r3
    24cc:	4b14      	ldr	r3, [pc, #80]	; (2520 <ds18b20_Read+0xc0>)
    24ce:	801a      	strh	r2, [r3, #0]
E:\BOBO_KDS\KL25_DS18_GPRS\Debug/../06_App_Component/DS18B20/DS18B20.c:98
		Temperature = ((~Temperature)+0x0001);
    24d0:	4b13      	ldr	r3, [pc, #76]	; (2520 <ds18b20_Read+0xc0>)
    24d2:	881b      	ldrh	r3, [r3, #0]
    24d4:	b29b      	uxth	r3, r3
    24d6:	425b      	negs	r3, r3
    24d8:	b29a      	uxth	r2, r3
    24da:	4b11      	ldr	r3, [pc, #68]	; (2520 <ds18b20_Read+0xc0>)
    24dc:	801a      	strh	r2, [r3, #0]
E:\BOBO_KDS\KL25_DS18_GPRS\Debug/../06_App_Component/DS18B20/DS18B20.c:99
		Temperature >>= 4;
    24de:	4b10      	ldr	r3, [pc, #64]	; (2520 <ds18b20_Read+0xc0>)
    24e0:	881b      	ldrh	r3, [r3, #0]
    24e2:	b29b      	uxth	r3, r3
    24e4:	091b      	lsrs	r3, r3, #4
    24e6:	b29a      	uxth	r2, r3
    24e8:	4b0d      	ldr	r3, [pc, #52]	; (2520 <ds18b20_Read+0xc0>)
    24ea:	801a      	strh	r2, [r3, #0]
E:\BOBO_KDS\KL25_DS18_GPRS\Debug/../06_App_Component/DS18B20/DS18B20.c:101
//		Temperature *= 0.0625;
		return 0;
    24ec:	2300      	movs	r3, #0
    24ee:	e013      	b.n	2518 <ds18b20_Read+0xb8>
E:\BOBO_KDS\KL25_DS18_GPRS\Debug/../06_App_Component/DS18B20/DS18B20.c:104
	}
	else{
		Temperature =(uint_16)(T_H<<8)+(uint_16)T_L;
    24f0:	1dbb      	adds	r3, r7, #6
    24f2:	781b      	ldrb	r3, [r3, #0]
    24f4:	b29b      	uxth	r3, r3
    24f6:	021b      	lsls	r3, r3, #8
    24f8:	b29a      	uxth	r2, r3
    24fa:	1dfb      	adds	r3, r7, #7
    24fc:	781b      	ldrb	r3, [r3, #0]
    24fe:	b29b      	uxth	r3, r3
    2500:	18d3      	adds	r3, r2, r3
    2502:	b29a      	uxth	r2, r3
    2504:	4b06      	ldr	r3, [pc, #24]	; (2520 <ds18b20_Read+0xc0>)
    2506:	801a      	strh	r2, [r3, #0]
E:\BOBO_KDS\KL25_DS18_GPRS\Debug/../06_App_Component/DS18B20/DS18B20.c:105
		Temperature >>= 4;
    2508:	4b05      	ldr	r3, [pc, #20]	; (2520 <ds18b20_Read+0xc0>)
    250a:	881b      	ldrh	r3, [r3, #0]
    250c:	b29b      	uxth	r3, r3
    250e:	091b      	lsrs	r3, r3, #4
    2510:	b29a      	uxth	r2, r3
    2512:	4b03      	ldr	r3, [pc, #12]	; (2520 <ds18b20_Read+0xc0>)
    2514:	801a      	strh	r2, [r3, #0]
E:\BOBO_KDS\KL25_DS18_GPRS\Debug/../06_App_Component/DS18B20/DS18B20.c:107
//		Temperature *= 0.0625;
		return 1;
    2516:	2301      	movs	r3, #1
E:\BOBO_KDS\KL25_DS18_GPRS\Debug/../06_App_Component/DS18B20/DS18B20.c:110
	}

}
    2518:	1c18      	adds	r0, r3, #0
    251a:	46bd      	mov	sp, r7
    251c:	b003      	add	sp, #12
    251e:	bd90      	pop	{r4, r7, pc}
    2520:	1ffff022 	.word	0x1ffff022

00002524 <NVIC_EnableIRQ>:
NVIC_EnableIRQ():
E:/BOBO_KDS/KL25_DS18_GPRS/02_CPU/core_cm0plus.h:684
    The function enables a device-specific interrupt in the NVIC interrupt controller.

    \param [in]      IRQn  External interrupt number. Value cannot be negative.
 */
__STATIC_INLINE void NVIC_EnableIRQ(IRQn_Type IRQn)
{
    2524:	b580      	push	{r7, lr}
    2526:	b082      	sub	sp, #8
    2528:	af00      	add	r7, sp, #0
    252a:	1c02      	adds	r2, r0, #0
    252c:	1dfb      	adds	r3, r7, #7
    252e:	701a      	strb	r2, [r3, #0]
E:/BOBO_KDS/KL25_DS18_GPRS/02_CPU/core_cm0plus.h:685
  NVIC->ISER[0] = (uint32_t)(1UL << (((uint32_t)(int32_t)IRQn) & 0x1FUL));
    2530:	4b06      	ldr	r3, [pc, #24]	; (254c <NVIC_EnableIRQ+0x28>)
    2532:	1dfa      	adds	r2, r7, #7
    2534:	7812      	ldrb	r2, [r2, #0]
    2536:	1c11      	adds	r1, r2, #0
    2538:	221f      	movs	r2, #31
    253a:	400a      	ands	r2, r1
    253c:	2101      	movs	r1, #1
    253e:	1c08      	adds	r0, r1, #0
    2540:	4090      	lsls	r0, r2
    2542:	1c02      	adds	r2, r0, #0
    2544:	601a      	str	r2, [r3, #0]
E:/BOBO_KDS/KL25_DS18_GPRS/02_CPU/core_cm0plus.h:686
}
    2546:	46bd      	mov	sp, r7
    2548:	b002      	add	sp, #8
    254a:	bd80      	pop	{r7, pc}
    254c:	e000e100 	.word	0xe000e100

00002550 <uart_init>:
uart_init():
E:\BOBO_KDS\KL25_DS18_GPRS\Debug/../05_Driver/uart/uart.c:25
//参数说明：uartNo:串口号：UART_0、UART_1、UART_2 
//          baud:波特率：300、600、1200、2400、4800、9600、19200、115200...
//函数返回：无
//======================================================================
void uart_init(uint_8 uartNo, uint_32 baud_rate)
{
    2550:	b580      	push	{r7, lr}
    2552:	b086      	sub	sp, #24
    2554:	af00      	add	r7, sp, #0
    2556:	1c02      	adds	r2, r0, #0
    2558:	6039      	str	r1, [r7, #0]
    255a:	1dfb      	adds	r3, r7, #7
    255c:	701a      	strb	r2, [r3, #0]
E:\BOBO_KDS\KL25_DS18_GPRS\Debug/../05_Driver/uart/uart.c:29
    //局部变量声明
    uint_16 sbr;
    uint_8 temp;
    UART0_MemMapPtr uartch_0=UART0_BASE_PTR;//uartch_0为UART0_MemMapPtr类型指针
    255e:	4b9b      	ldr	r3, [pc, #620]	; (27cc <uart_init+0x27c>)
    2560:	617b      	str	r3, [r7, #20]
E:\BOBO_KDS\KL25_DS18_GPRS\Debug/../05_Driver/uart/uart.c:33
    UART_MemMapPtr uartch_1_2;    //uartch_1_2为UART_MemMapPtr类型指针

    //判断传入串口号参数是否有误，有误直接退出
    if(!uart_is_uartNo(uartNo))
    2562:	1dfb      	adds	r3, r7, #7
    2564:	781b      	ldrb	r3, [r3, #0]
    2566:	1c18      	adds	r0, r3, #0
    2568:	f000 fb32 	bl	2bd0 <uart_is_uartNo>
    256c:	1c03      	adds	r3, r0, #0
    256e:	2b00      	cmp	r3, #0
    2570:	d100      	bne.n	2574 <uart_init+0x24>
E:\BOBO_KDS\KL25_DS18_GPRS\Debug/../05_Driver/uart/uart.c:35
    {
        return;
    2572:	e128      	b.n	27c6 <uart_init+0x276>
E:\BOBO_KDS\KL25_DS18_GPRS\Debug/../05_Driver/uart/uart.c:39
    }

    //根据带入参数uartNo，给局部变量uartch_0或uartch_1_2赋值
    if(uartNo==0)
    2574:	1dfb      	adds	r3, r7, #7
    2576:	781b      	ldrb	r3, [r3, #0]
    2578:	2b00      	cmp	r3, #0
    257a:	d000      	beq.n	257e <uart_init+0x2e>
    257c:	e098      	b.n	26b0 <uart_init+0x160>
E:\BOBO_KDS\KL25_DS18_GPRS\Debug/../05_Driver/uart/uart.c:42
    {
        //UART0选择MCGFLLCLK_khz=48000Khz时钟源
        SIM_SOPT2 |= SIM_SOPT2_UART0SRC(0x1);
    257e:	4a94      	ldr	r2, [pc, #592]	; (27d0 <uart_init+0x280>)
    2580:	4993      	ldr	r1, [pc, #588]	; (27d0 <uart_init+0x280>)
    2582:	4b94      	ldr	r3, [pc, #592]	; (27d4 <uart_init+0x284>)
    2584:	58cb      	ldr	r3, [r1, r3]
    2586:	2180      	movs	r1, #128	; 0x80
    2588:	04c9      	lsls	r1, r1, #19
    258a:	4319      	orrs	r1, r3
    258c:	4b91      	ldr	r3, [pc, #580]	; (27d4 <uart_init+0x284>)
    258e:	50d1      	str	r1, [r2, r3]
E:\BOBO_KDS\KL25_DS18_GPRS\Debug/../05_Driver/uart/uart.c:43
        SIM_SOPT2 |= SIM_SOPT2_PLLFLLSEL_MASK;
    2590:	4a8f      	ldr	r2, [pc, #572]	; (27d0 <uart_init+0x280>)
    2592:	498f      	ldr	r1, [pc, #572]	; (27d0 <uart_init+0x280>)
    2594:	4b8f      	ldr	r3, [pc, #572]	; (27d4 <uart_init+0x284>)
    2596:	58cb      	ldr	r3, [r1, r3]
    2598:	2180      	movs	r1, #128	; 0x80
    259a:	0249      	lsls	r1, r1, #9
    259c:	4319      	orrs	r1, r3
    259e:	4b8d      	ldr	r3, [pc, #564]	; (27d4 <uart_init+0x284>)
    25a0:	50d1      	str	r1, [r2, r3]
E:\BOBO_KDS\KL25_DS18_GPRS\Debug/../05_Driver/uart/uart.c:57
        case 1:
            PORTA_PCR2 |= PORT_PCR_MUX(0x2);     //使能UART0_TXD
            PORTA_PCR1 |= PORT_PCR_MUX(0x2);     //使能UART0_RXD
            break;
        case 2:
            PORTA_PCR14 |= PORT_PCR_MUX(0x3);    //使能UART0_TXD
    25a2:	4b8d      	ldr	r3, [pc, #564]	; (27d8 <uart_init+0x288>)
    25a4:	4a8c      	ldr	r2, [pc, #560]	; (27d8 <uart_init+0x288>)
    25a6:	6b92      	ldr	r2, [r2, #56]	; 0x38
    25a8:	21c0      	movs	r1, #192	; 0xc0
    25aa:	0089      	lsls	r1, r1, #2
    25ac:	430a      	orrs	r2, r1
    25ae:	639a      	str	r2, [r3, #56]	; 0x38
E:\BOBO_KDS\KL25_DS18_GPRS\Debug/../05_Driver/uart/uart.c:58
            PORTA_PCR15 |= PORT_PCR_MUX(0x3);    //使能UART0_RXD
    25b0:	4b89      	ldr	r3, [pc, #548]	; (27d8 <uart_init+0x288>)
    25b2:	4a89      	ldr	r2, [pc, #548]	; (27d8 <uart_init+0x288>)
    25b4:	6bd2      	ldr	r2, [r2, #60]	; 0x3c
    25b6:	21c0      	movs	r1, #192	; 0xc0
    25b8:	0089      	lsls	r1, r1, #2
    25ba:	430a      	orrs	r2, r1
    25bc:	63da      	str	r2, [r3, #60]	; 0x3c
E:\BOBO_KDS\KL25_DS18_GPRS\Debug/../05_Driver/uart/uart.c:59
            break;
    25be:	46c0      	nop			; (mov r8, r8)
E:\BOBO_KDS\KL25_DS18_GPRS\Debug/../05_Driver/uart/uart.c:71
            PORTD_PCR7 |= PORT_PCR_MUX(0x3);     //使能UART0_TXD
            PORTD_PCR6 |= PORT_PCR_MUX(0x3);     //使能UART0_RXD
            break;
        }
#endif
        SIM_SCGC4 |= SIM_SCGC4_UART0_MASK;    //启动串口0时钟
    25c0:	4a83      	ldr	r2, [pc, #524]	; (27d0 <uart_init+0x280>)
    25c2:	4983      	ldr	r1, [pc, #524]	; (27d0 <uart_init+0x280>)
    25c4:	4b85      	ldr	r3, [pc, #532]	; (27dc <uart_init+0x28c>)
    25c6:	58cb      	ldr	r3, [r1, r3]
    25c8:	2180      	movs	r1, #128	; 0x80
    25ca:	00c9      	lsls	r1, r1, #3
    25cc:	4319      	orrs	r1, r3
    25ce:	4b83      	ldr	r3, [pc, #524]	; (27dc <uart_init+0x28c>)
    25d0:	50d1      	str	r1, [r2, r3]
E:\BOBO_KDS\KL25_DS18_GPRS\Debug/../05_Driver/uart/uart.c:74

        //暂时关闭串口0发送与接收功能
        UART0_C2_REG(uartch_0) &= ~(UART0_C2_TE_MASK | UART0_C2_RE_MASK);
    25d2:	697b      	ldr	r3, [r7, #20]
    25d4:	78db      	ldrb	r3, [r3, #3]
    25d6:	b2db      	uxtb	r3, r3
    25d8:	220c      	movs	r2, #12
    25da:	4393      	bics	r3, r2
    25dc:	b2da      	uxtb	r2, r3
    25de:	697b      	ldr	r3, [r7, #20]
    25e0:	70da      	strb	r2, [r3, #3]
E:\BOBO_KDS\KL25_DS18_GPRS\Debug/../05_Driver/uart/uart.c:77

        //配置串口工作模式:8位无校验模式
        sbr = (uint_16)((SYSTEM_CLK_KHZ*1000)/(baud_rate * 16));
    25e2:	4b7f      	ldr	r3, [pc, #508]	; (27e0 <uart_init+0x290>)
    25e4:	681b      	ldr	r3, [r3, #0]
    25e6:	1c18      	adds	r0, r3, #0
    25e8:	23fa      	movs	r3, #250	; 0xfa
    25ea:	0099      	lsls	r1, r3, #2
    25ec:	f7fe f92e 	bl	84c <__aeabi_uidiv>
    25f0:	1c03      	adds	r3, r0, #0
    25f2:	22fa      	movs	r2, #250	; 0xfa
    25f4:	0092      	lsls	r2, r2, #2
    25f6:	435a      	muls	r2, r3
    25f8:	683b      	ldr	r3, [r7, #0]
    25fa:	011b      	lsls	r3, r3, #4
    25fc:	1c10      	adds	r0, r2, #0
    25fe:	1c19      	adds	r1, r3, #0
    2600:	f7fe f924 	bl	84c <__aeabi_uidiv>
    2604:	1c03      	adds	r3, r0, #0
    2606:	1c1a      	adds	r2, r3, #0
    2608:	1c3b      	adds	r3, r7, #0
    260a:	3312      	adds	r3, #18
    260c:	801a      	strh	r2, [r3, #0]
E:\BOBO_KDS\KL25_DS18_GPRS\Debug/../05_Driver/uart/uart.c:78
        temp = UART0_BDH_REG(uartch_0) & ~(UART0_BDH_SBR(0x1F));
    260e:	697b      	ldr	r3, [r7, #20]
    2610:	781b      	ldrb	r3, [r3, #0]
    2612:	b2da      	uxtb	r2, r3
    2614:	1c3b      	adds	r3, r7, #0
    2616:	3311      	adds	r3, #17
    2618:	211f      	movs	r1, #31
    261a:	438a      	bics	r2, r1
    261c:	701a      	strb	r2, [r3, #0]
E:\BOBO_KDS\KL25_DS18_GPRS\Debug/../05_Driver/uart/uart.c:79
        UART0_BDH_REG(uartch_0) = temp | UART0_BDH_SBR(((sbr & 0x1F00) >> 8));
    261e:	1c3b      	adds	r3, r7, #0
    2620:	3312      	adds	r3, #18
    2622:	881a      	ldrh	r2, [r3, #0]
    2624:	23f8      	movs	r3, #248	; 0xf8
    2626:	015b      	lsls	r3, r3, #5
    2628:	4013      	ands	r3, r2
    262a:	121b      	asrs	r3, r3, #8
    262c:	b2da      	uxtb	r2, r3
    262e:	231f      	movs	r3, #31
    2630:	4013      	ands	r3, r2
    2632:	b2da      	uxtb	r2, r3
    2634:	1c3b      	adds	r3, r7, #0
    2636:	3311      	adds	r3, #17
    2638:	781b      	ldrb	r3, [r3, #0]
    263a:	4313      	orrs	r3, r2
    263c:	b2da      	uxtb	r2, r3
    263e:	697b      	ldr	r3, [r7, #20]
    2640:	701a      	strb	r2, [r3, #0]
E:\BOBO_KDS\KL25_DS18_GPRS\Debug/../05_Driver/uart/uart.c:80
        UART0_BDL_REG(uartch_0) = (uint_8)(sbr & UART0_BDL_SBR_MASK);
    2642:	1c3b      	adds	r3, r7, #0
    2644:	3312      	adds	r3, #18
    2646:	881b      	ldrh	r3, [r3, #0]
    2648:	b2da      	uxtb	r2, r3
    264a:	697b      	ldr	r3, [r7, #20]
    264c:	705a      	strb	r2, [r3, #1]
E:\BOBO_KDS\KL25_DS18_GPRS\Debug/../05_Driver/uart/uart.c:83

        //初始化控制寄存器、清标志位
        UART0_C4_REG(uartch_0) = 0x0F;
    264e:	697b      	ldr	r3, [r7, #20]
    2650:	220f      	movs	r2, #15
    2652:	729a      	strb	r2, [r3, #10]
E:\BOBO_KDS\KL25_DS18_GPRS\Debug/../05_Driver/uart/uart.c:84
        UART0_C1_REG(uartch_0) = 0x00;
    2654:	697b      	ldr	r3, [r7, #20]
    2656:	2200      	movs	r2, #0
    2658:	709a      	strb	r2, [r3, #2]
E:\BOBO_KDS\KL25_DS18_GPRS\Debug/../05_Driver/uart/uart.c:85
        UART0_C3_REG(uartch_0) = 0x00;
    265a:	697b      	ldr	r3, [r7, #20]
    265c:	2200      	movs	r2, #0
    265e:	719a      	strb	r2, [r3, #6]
E:\BOBO_KDS\KL25_DS18_GPRS\Debug/../05_Driver/uart/uart.c:86
        UART0_MA1_REG(uartch_0) = 0x00;
    2660:	697b      	ldr	r3, [r7, #20]
    2662:	2200      	movs	r2, #0
    2664:	721a      	strb	r2, [r3, #8]
E:\BOBO_KDS\KL25_DS18_GPRS\Debug/../05_Driver/uart/uart.c:87
        UART0_MA2_REG(uartch_0) = 0x00;
    2666:	697b      	ldr	r3, [r7, #20]
    2668:	2200      	movs	r2, #0
    266a:	725a      	strb	r2, [r3, #9]
E:\BOBO_KDS\KL25_DS18_GPRS\Debug/../05_Driver/uart/uart.c:88
        UART0_S1_REG(uartch_0) |= 0x1F;
    266c:	697b      	ldr	r3, [r7, #20]
    266e:	791b      	ldrb	r3, [r3, #4]
    2670:	b2db      	uxtb	r3, r3
    2672:	221f      	movs	r2, #31
    2674:	4313      	orrs	r3, r2
    2676:	b2da      	uxtb	r2, r3
    2678:	697b      	ldr	r3, [r7, #20]
    267a:	711a      	strb	r2, [r3, #4]
E:\BOBO_KDS\KL25_DS18_GPRS\Debug/../05_Driver/uart/uart.c:89
        UART0_S2_REG(uartch_0) |= 0xC0;
    267c:	697b      	ldr	r3, [r7, #20]
    267e:	795b      	ldrb	r3, [r3, #5]
    2680:	b2db      	uxtb	r3, r3
    2682:	2240      	movs	r2, #64	; 0x40
    2684:	4252      	negs	r2, r2
    2686:	4313      	orrs	r3, r2
    2688:	b2da      	uxtb	r2, r3
    268a:	697b      	ldr	r3, [r7, #20]
    268c:	715a      	strb	r2, [r3, #5]
E:\BOBO_KDS\KL25_DS18_GPRS\Debug/../05_Driver/uart/uart.c:91
        //禁用串口发送中断
        UART0_C2_REG(uartch_0) &= ~UART0_C2_TIE_MASK;
    268e:	697b      	ldr	r3, [r7, #20]
    2690:	78db      	ldrb	r3, [r3, #3]
    2692:	b2da      	uxtb	r2, r3
    2694:	237f      	movs	r3, #127	; 0x7f
    2696:	4013      	ands	r3, r2
    2698:	b2da      	uxtb	r2, r3
    269a:	697b      	ldr	r3, [r7, #20]
    269c:	70da      	strb	r2, [r3, #3]
E:\BOBO_KDS\KL25_DS18_GPRS\Debug/../05_Driver/uart/uart.c:93
        //启动发送接收
        UART0_C2_REG(uartch_0) |= (UART0_C2_TE_MASK | UART0_C2_RE_MASK);
    269e:	697b      	ldr	r3, [r7, #20]
    26a0:	78db      	ldrb	r3, [r3, #3]
    26a2:	b2db      	uxtb	r3, r3
    26a4:	220c      	movs	r2, #12
    26a6:	4313      	orrs	r3, r2
    26a8:	b2da      	uxtb	r2, r3
    26aa:	697b      	ldr	r3, [r7, #20]
    26ac:	70da      	strb	r2, [r3, #3]
    26ae:	e08a      	b.n	27c6 <uart_init+0x276>
E:\BOBO_KDS\KL25_DS18_GPRS\Debug/../05_Driver/uart/uart.c:97
    }
    else
    {
        switch (uartNo)
    26b0:	1dfb      	adds	r3, r7, #7
    26b2:	781b      	ldrb	r3, [r3, #0]
    26b4:	2b01      	cmp	r3, #1
    26b6:	d002      	beq.n	26be <uart_init+0x16e>
    26b8:	2b02      	cmp	r3, #2
    26ba:	d013      	beq.n	26e4 <uart_init+0x194>
E:\BOBO_KDS\KL25_DS18_GPRS\Debug/../05_Driver/uart/uart.c:142
            }
#endif
            SIM_SCGC4 |= SIM_SCGC4_UART2_MASK;//启动串口2时钟
            break;
        default:
            break;  //传参错误，返回
    26bc:	e025      	b.n	270a <uart_init+0x1ba>
E:\BOBO_KDS\KL25_DS18_GPRS\Debug/../05_Driver/uart/uart.c:104
        case UART_1:
#ifdef UART_1_GROUP
            switch(UART_1_GROUP)
            {
            case 0:
                PORTE_PCR0 = PORT_PCR_MUX(0x3);    //使能UART1_TXD
    26be:	4b49      	ldr	r3, [pc, #292]	; (27e4 <uart_init+0x294>)
    26c0:	22c0      	movs	r2, #192	; 0xc0
    26c2:	0092      	lsls	r2, r2, #2
    26c4:	601a      	str	r2, [r3, #0]
E:\BOBO_KDS\KL25_DS18_GPRS\Debug/../05_Driver/uart/uart.c:105
                PORTE_PCR1 = PORT_PCR_MUX(0x3);    //使能UART1_RXD
    26c6:	4b47      	ldr	r3, [pc, #284]	; (27e4 <uart_init+0x294>)
    26c8:	22c0      	movs	r2, #192	; 0xc0
    26ca:	0092      	lsls	r2, r2, #2
    26cc:	605a      	str	r2, [r3, #4]
E:\BOBO_KDS\KL25_DS18_GPRS\Debug/../05_Driver/uart/uart.c:106
                break;
    26ce:	46c0      	nop			; (mov r8, r8)
E:\BOBO_KDS\KL25_DS18_GPRS\Debug/../05_Driver/uart/uart.c:118
                PORTC_PCR4 = PORT_PCR_MUX(0x3);    //使能UART1_TXD
                PORTC_PCR5 = PORT_PCR_MUX(0x3);    //使能UART1_RXD
                break;
            }
#endif
            SIM_SCGC4 |= SIM_SCGC4_UART1_MASK; //启动串口1时钟
    26d0:	4a3f      	ldr	r2, [pc, #252]	; (27d0 <uart_init+0x280>)
    26d2:	493f      	ldr	r1, [pc, #252]	; (27d0 <uart_init+0x280>)
    26d4:	4b41      	ldr	r3, [pc, #260]	; (27dc <uart_init+0x28c>)
    26d6:	58cb      	ldr	r3, [r1, r3]
    26d8:	2180      	movs	r1, #128	; 0x80
    26da:	0109      	lsls	r1, r1, #4
    26dc:	4319      	orrs	r1, r3
    26de:	4b3f      	ldr	r3, [pc, #252]	; (27dc <uart_init+0x28c>)
    26e0:	50d1      	str	r1, [r2, r3]
E:\BOBO_KDS\KL25_DS18_GPRS\Debug/../05_Driver/uart/uart.c:119
            break;
    26e2:	e012      	b.n	270a <uart_init+0x1ba>
E:\BOBO_KDS\KL25_DS18_GPRS\Debug/../05_Driver/uart/uart.c:125
        case UART_2:
#ifdef UART_2_GROUP
            switch(UART_2_GROUP)
            {
            case 0:
                PORTE_PCR22 = PORT_PCR_MUX(0x4); //使能UART2_TXD
    26e4:	4b3f      	ldr	r3, [pc, #252]	; (27e4 <uart_init+0x294>)
    26e6:	2280      	movs	r2, #128	; 0x80
    26e8:	00d2      	lsls	r2, r2, #3
    26ea:	659a      	str	r2, [r3, #88]	; 0x58
E:\BOBO_KDS\KL25_DS18_GPRS\Debug/../05_Driver/uart/uart.c:126
                PORTE_PCR23 = PORT_PCR_MUX(0x4); //使能UART2_RXD
    26ec:	4b3d      	ldr	r3, [pc, #244]	; (27e4 <uart_init+0x294>)
    26ee:	2280      	movs	r2, #128	; 0x80
    26f0:	00d2      	lsls	r2, r2, #3
    26f2:	65da      	str	r2, [r3, #92]	; 0x5c
E:\BOBO_KDS\KL25_DS18_GPRS\Debug/../05_Driver/uart/uart.c:127
                break;
    26f4:	46c0      	nop			; (mov r8, r8)
E:\BOBO_KDS\KL25_DS18_GPRS\Debug/../05_Driver/uart/uart.c:139
                PORTD_PCR5 = PORT_PCR_MUX(0x3); //使能UART2_TXD
                PORTD_PCR6 = PORT_PCR_MUX(0x3); //使能UART2_RXD
                break;
            }
#endif
            SIM_SCGC4 |= SIM_SCGC4_UART2_MASK;//启动串口2时钟
    26f6:	4a36      	ldr	r2, [pc, #216]	; (27d0 <uart_init+0x280>)
    26f8:	4935      	ldr	r1, [pc, #212]	; (27d0 <uart_init+0x280>)
    26fa:	4b38      	ldr	r3, [pc, #224]	; (27dc <uart_init+0x28c>)
    26fc:	58cb      	ldr	r3, [r1, r3]
    26fe:	2180      	movs	r1, #128	; 0x80
    2700:	0149      	lsls	r1, r1, #5
    2702:	4319      	orrs	r1, r3
    2704:	4b35      	ldr	r3, [pc, #212]	; (27dc <uart_init+0x28c>)
    2706:	50d1      	str	r1, [r2, r3]
E:\BOBO_KDS\KL25_DS18_GPRS\Debug/../05_Driver/uart/uart.c:140
            break;
    2708:	46c0      	nop			; (mov r8, r8)
E:\BOBO_KDS\KL25_DS18_GPRS\Debug/../05_Driver/uart/uart.c:144
        default:
            break;  //传参错误，返回
        }
        uartch_1_2 = UART_ARR[uartNo-1]; //获得UART1、2模块相应口基地址
    270a:	1dfb      	adds	r3, r7, #7
    270c:	781b      	ldrb	r3, [r3, #0]
    270e:	1e5a      	subs	r2, r3, #1
    2710:	4b35      	ldr	r3, [pc, #212]	; (27e8 <uart_init+0x298>)
    2712:	0092      	lsls	r2, r2, #2
    2714:	58d3      	ldr	r3, [r2, r3]
    2716:	60fb      	str	r3, [r7, #12]
E:\BOBO_KDS\KL25_DS18_GPRS\Debug/../05_Driver/uart/uart.c:147

        //暂时关闭串口1、2发送与接收功能
        UART_C2_REG(uartch_1_2) &= ~(UART_C2_TE_MASK | UART_C2_RE_MASK);
    2718:	68fb      	ldr	r3, [r7, #12]
    271a:	78db      	ldrb	r3, [r3, #3]
    271c:	b2db      	uxtb	r3, r3
    271e:	220c      	movs	r2, #12
    2720:	4393      	bics	r3, r2
    2722:	b2da      	uxtb	r2, r3
    2724:	68fb      	ldr	r3, [r7, #12]
    2726:	70da      	strb	r2, [r3, #3]
E:\BOBO_KDS\KL25_DS18_GPRS\Debug/../05_Driver/uart/uart.c:151

        //配置波特率,KL25串口1、2时钟频率使用 Bus clock = 24M 总线时钟
        //配置串口工作模式,8位无校验模式
        sbr = (uint_16)((BUS_CLK_KHZ*1000)/(baud_rate * 16));
    2728:	4b2d      	ldr	r3, [pc, #180]	; (27e0 <uart_init+0x290>)
    272a:	681b      	ldr	r3, [r3, #0]
    272c:	1c18      	adds	r0, r3, #0
    272e:	23fa      	movs	r3, #250	; 0xfa
    2730:	00d9      	lsls	r1, r3, #3
    2732:	f7fe f88b 	bl	84c <__aeabi_uidiv>
    2736:	1c03      	adds	r3, r0, #0
    2738:	22fa      	movs	r2, #250	; 0xfa
    273a:	0092      	lsls	r2, r2, #2
    273c:	435a      	muls	r2, r3
    273e:	683b      	ldr	r3, [r7, #0]
    2740:	011b      	lsls	r3, r3, #4
    2742:	1c10      	adds	r0, r2, #0
    2744:	1c19      	adds	r1, r3, #0
    2746:	f7fe f881 	bl	84c <__aeabi_uidiv>
    274a:	1c03      	adds	r3, r0, #0
    274c:	1c1a      	adds	r2, r3, #0
    274e:	1c3b      	adds	r3, r7, #0
    2750:	3312      	adds	r3, #18
    2752:	801a      	strh	r2, [r3, #0]
E:\BOBO_KDS\KL25_DS18_GPRS\Debug/../05_Driver/uart/uart.c:152
        temp = UART_BDH_REG(uartch_1_2) & ~(UART_BDH_SBR(0x1F));
    2754:	68fb      	ldr	r3, [r7, #12]
    2756:	781b      	ldrb	r3, [r3, #0]
    2758:	b2da      	uxtb	r2, r3
    275a:	1c3b      	adds	r3, r7, #0
    275c:	3311      	adds	r3, #17
    275e:	211f      	movs	r1, #31
    2760:	438a      	bics	r2, r1
    2762:	701a      	strb	r2, [r3, #0]
E:\BOBO_KDS\KL25_DS18_GPRS\Debug/../05_Driver/uart/uart.c:153
        UART_BDH_REG(uartch_1_2) = temp |  UART_BDH_SBR(((sbr & 0x1F00) >> 8));
    2764:	1c3b      	adds	r3, r7, #0
    2766:	3312      	adds	r3, #18
    2768:	881a      	ldrh	r2, [r3, #0]
    276a:	23f8      	movs	r3, #248	; 0xf8
    276c:	015b      	lsls	r3, r3, #5
    276e:	4013      	ands	r3, r2
    2770:	121b      	asrs	r3, r3, #8
    2772:	b2da      	uxtb	r2, r3
    2774:	231f      	movs	r3, #31
    2776:	4013      	ands	r3, r2
    2778:	b2da      	uxtb	r2, r3
    277a:	1c3b      	adds	r3, r7, #0
    277c:	3311      	adds	r3, #17
    277e:	781b      	ldrb	r3, [r3, #0]
    2780:	4313      	orrs	r3, r2
    2782:	b2da      	uxtb	r2, r3
    2784:	68fb      	ldr	r3, [r7, #12]
    2786:	701a      	strb	r2, [r3, #0]
E:\BOBO_KDS\KL25_DS18_GPRS\Debug/../05_Driver/uart/uart.c:154
        UART_BDL_REG(uartch_1_2) = (uint_8)(sbr & UART_BDL_SBR_MASK);
    2788:	1c3b      	adds	r3, r7, #0
    278a:	3312      	adds	r3, #18
    278c:	881b      	ldrh	r3, [r3, #0]
    278e:	b2da      	uxtb	r2, r3
    2790:	68fb      	ldr	r3, [r7, #12]
    2792:	705a      	strb	r2, [r3, #1]
E:\BOBO_KDS\KL25_DS18_GPRS\Debug/../05_Driver/uart/uart.c:157

        //初始化控制寄存器、清标志位
        UART_C1_REG(uartch_1_2)=0x00;
    2794:	68fb      	ldr	r3, [r7, #12]
    2796:	2200      	movs	r2, #0
    2798:	709a      	strb	r2, [r3, #2]
E:\BOBO_KDS\KL25_DS18_GPRS\Debug/../05_Driver/uart/uart.c:158
        UART_C3_REG(uartch_1_2)=0x00;
    279a:	68fb      	ldr	r3, [r7, #12]
    279c:	2200      	movs	r2, #0
    279e:	719a      	strb	r2, [r3, #6]
E:\BOBO_KDS\KL25_DS18_GPRS\Debug/../05_Driver/uart/uart.c:159
        UART_S2_REG(uartch_1_2)=0x00;
    27a0:	68fb      	ldr	r3, [r7, #12]
    27a2:	2200      	movs	r2, #0
    27a4:	715a      	strb	r2, [r3, #5]
E:\BOBO_KDS\KL25_DS18_GPRS\Debug/../05_Driver/uart/uart.c:161
        //禁用串口发送中断
        UART_C2_REG(uartch_1_2) &= ~UART_C2_TIE_MASK;
    27a6:	68fb      	ldr	r3, [r7, #12]
    27a8:	78db      	ldrb	r3, [r3, #3]
    27aa:	b2da      	uxtb	r2, r3
    27ac:	237f      	movs	r3, #127	; 0x7f
    27ae:	4013      	ands	r3, r2
    27b0:	b2da      	uxtb	r2, r3
    27b2:	68fb      	ldr	r3, [r7, #12]
    27b4:	70da      	strb	r2, [r3, #3]
E:\BOBO_KDS\KL25_DS18_GPRS\Debug/../05_Driver/uart/uart.c:163
        //启动发送接收
        UART_C2_REG(uartch_1_2)|= (UART_C2_TE_MASK | UART_C2_RE_MASK);
    27b6:	68fb      	ldr	r3, [r7, #12]
    27b8:	78db      	ldrb	r3, [r3, #3]
    27ba:	b2db      	uxtb	r3, r3
    27bc:	220c      	movs	r2, #12
    27be:	4313      	orrs	r3, r2
    27c0:	b2da      	uxtb	r2, r3
    27c2:	68fb      	ldr	r3, [r7, #12]
    27c4:	70da      	strb	r2, [r3, #3]
E:\BOBO_KDS\KL25_DS18_GPRS\Debug/../05_Driver/uart/uart.c:165
    }
}
    27c6:	46bd      	mov	sp, r7
    27c8:	b006      	add	sp, #24
    27ca:	bd80      	pop	{r7, pc}
    27cc:	4006a000 	.word	0x4006a000
    27d0:	40047000 	.word	0x40047000
    27d4:	00001004 	.word	0x00001004
    27d8:	40049000 	.word	0x40049000
    27dc:	00001034 	.word	0x00001034
    27e0:	1ffff018 	.word	0x1ffff018
    27e4:	4004d000 	.word	0x4004d000
    27e8:	00003ce4 	.word	0x00003ce4

000027ec <uart_send1>:
uart_send1():
E:\BOBO_KDS\KL25_DS18_GPRS\Debug/../05_Driver/uart/uart.c:174
//          ch:要发送的字节
//函数返回：函数执行状态：1=发送成功；0=发送失败。
//功能概要：串行发送1个字节
//======================================================================
uint_8 uart_send1(uint_8 uartNo, uint_8 ch)
{
    27ec:	b580      	push	{r7, lr}
    27ee:	b086      	sub	sp, #24
    27f0:	af00      	add	r7, sp, #0
    27f2:	1c0a      	adds	r2, r1, #0
    27f4:	1dfb      	adds	r3, r7, #7
    27f6:	1c01      	adds	r1, r0, #0
    27f8:	7019      	strb	r1, [r3, #0]
    27fa:	1dbb      	adds	r3, r7, #6
    27fc:	701a      	strb	r2, [r3, #0]
E:\BOBO_KDS\KL25_DS18_GPRS\Debug/../05_Driver/uart/uart.c:176
    uint_32 t;
    UART0_MemMapPtr uartch_0=UART0_BASE_PTR; //获取UART0基地址
    27fe:	4b22      	ldr	r3, [pc, #136]	; (2888 <uart_send1+0x9c>)
    2800:	613b      	str	r3, [r7, #16]
E:\BOBO_KDS\KL25_DS18_GPRS\Debug/../05_Driver/uart/uart.c:177
    UART_MemMapPtr uartch_1_2 = UART_ARR[uartNo-1]; //获取UART1或者2基地址
    2802:	1dfb      	adds	r3, r7, #7
    2804:	781b      	ldrb	r3, [r3, #0]
    2806:	1e5a      	subs	r2, r3, #1
    2808:	4b20      	ldr	r3, [pc, #128]	; (288c <uart_send1+0xa0>)
    280a:	0092      	lsls	r2, r2, #2
    280c:	58d3      	ldr	r3, [r2, r3]
    280e:	60fb      	str	r3, [r7, #12]
E:\BOBO_KDS\KL25_DS18_GPRS\Debug/../05_Driver/uart/uart.c:180

    //判断传入串口号参数是否有误，有误直接退出
    if(!uart_is_uartNo(uartNo))
    2810:	1dfb      	adds	r3, r7, #7
    2812:	781b      	ldrb	r3, [r3, #0]
    2814:	1c18      	adds	r0, r3, #0
    2816:	f000 f9db 	bl	2bd0 <uart_is_uartNo>
    281a:	1c03      	adds	r3, r0, #0
    281c:	2b00      	cmp	r3, #0
    281e:	d101      	bne.n	2824 <uart_send1+0x38>
E:\BOBO_KDS\KL25_DS18_GPRS\Debug/../05_Driver/uart/uart.c:182
    {
        return 0;
    2820:	2300      	movs	r3, #0
    2822:	e02c      	b.n	287e <uart_send1+0x92>
E:\BOBO_KDS\KL25_DS18_GPRS\Debug/../05_Driver/uart/uart.c:185
    }

    for (t = 0; t < 0xFBBB; t++)//查询指定次数
    2824:	2300      	movs	r3, #0
    2826:	617b      	str	r3, [r7, #20]
    2828:	e01e      	b.n	2868 <uart_send1+0x7c>
E:\BOBO_KDS\KL25_DS18_GPRS\Debug/../05_Driver/uart/uart.c:187
    {
        if(0==uartNo)     //判断使用的哪个串口
    282a:	1dfb      	adds	r3, r7, #7
    282c:	781b      	ldrb	r3, [r3, #0]
    282e:	2b00      	cmp	r3, #0
    2830:	d10b      	bne.n	284a <uart_send1+0x5e>
E:\BOBO_KDS\KL25_DS18_GPRS\Debug/../05_Driver/uart/uart.c:190
        {
        	//发送缓冲区为空则发送数据
            if ( UART0_S1_REG(uartch_0) & UART0_S1_TDRE_MASK )
    2832:	693b      	ldr	r3, [r7, #16]
    2834:	791b      	ldrb	r3, [r3, #4]
    2836:	b2db      	uxtb	r3, r3
    2838:	b2db      	uxtb	r3, r3
    283a:	b25b      	sxtb	r3, r3
    283c:	2b00      	cmp	r3, #0
    283e:	da10      	bge.n	2862 <uart_send1+0x76>
E:\BOBO_KDS\KL25_DS18_GPRS\Debug/../05_Driver/uart/uart.c:192
            {
                UART0_D_REG(uartch_0) = ch;
    2840:	693b      	ldr	r3, [r7, #16]
    2842:	1dba      	adds	r2, r7, #6
    2844:	7812      	ldrb	r2, [r2, #0]
    2846:	71da      	strb	r2, [r3, #7]
E:\BOBO_KDS\KL25_DS18_GPRS\Debug/../05_Driver/uart/uart.c:193
                break;
    2848:	e012      	b.n	2870 <uart_send1+0x84>
E:\BOBO_KDS\KL25_DS18_GPRS\Debug/../05_Driver/uart/uart.c:199
            }
        }
        else
        {
        	//发送缓冲区为空则发送数据
            if (UART_S1_REG(uartch_1_2) & UART_S1_TDRE_MASK )
    284a:	68fb      	ldr	r3, [r7, #12]
    284c:	791b      	ldrb	r3, [r3, #4]
    284e:	b2db      	uxtb	r3, r3
    2850:	b2db      	uxtb	r3, r3
    2852:	b25b      	sxtb	r3, r3
    2854:	2b00      	cmp	r3, #0
    2856:	da04      	bge.n	2862 <uart_send1+0x76>
E:\BOBO_KDS\KL25_DS18_GPRS\Debug/../05_Driver/uart/uart.c:201
            {
                UART_D_REG(uartch_1_2) = ch;
    2858:	68fb      	ldr	r3, [r7, #12]
    285a:	1dba      	adds	r2, r7, #6
    285c:	7812      	ldrb	r2, [r2, #0]
    285e:	71da      	strb	r2, [r3, #7]
E:\BOBO_KDS\KL25_DS18_GPRS\Debug/../05_Driver/uart/uart.c:202
                break;
    2860:	e006      	b.n	2870 <uart_send1+0x84>
E:\BOBO_KDS\KL25_DS18_GPRS\Debug/../05_Driver/uart/uart.c:185
    if(!uart_is_uartNo(uartNo))
    {
        return 0;
    }

    for (t = 0; t < 0xFBBB; t++)//查询指定次数
    2862:	697b      	ldr	r3, [r7, #20]
    2864:	3301      	adds	r3, #1
    2866:	617b      	str	r3, [r7, #20]
E:\BOBO_KDS\KL25_DS18_GPRS\Debug/../05_Driver/uart/uart.c:185 (discriminator 1)
    2868:	697a      	ldr	r2, [r7, #20]
    286a:	4b09      	ldr	r3, [pc, #36]	; (2890 <uart_send1+0xa4>)
    286c:	429a      	cmp	r2, r3
    286e:	d9dc      	bls.n	282a <uart_send1+0x3e>
E:\BOBO_KDS\KL25_DS18_GPRS\Debug/../05_Driver/uart/uart.c:206
                UART_D_REG(uartch_1_2) = ch;
                break;
            }
        }
    }//end for
    if (t >= 0xFBBB)
    2870:	697a      	ldr	r2, [r7, #20]
    2872:	4b07      	ldr	r3, [pc, #28]	; (2890 <uart_send1+0xa4>)
    2874:	429a      	cmp	r2, r3
    2876:	d901      	bls.n	287c <uart_send1+0x90>
E:\BOBO_KDS\KL25_DS18_GPRS\Debug/../05_Driver/uart/uart.c:207
        return 0; //发送超时，发送失败
    2878:	2300      	movs	r3, #0
    287a:	e000      	b.n	287e <uart_send1+0x92>
E:\BOBO_KDS\KL25_DS18_GPRS\Debug/../05_Driver/uart/uart.c:209
    else
        return 1; //发送成功
    287c:	2301      	movs	r3, #1
E:\BOBO_KDS\KL25_DS18_GPRS\Debug/../05_Driver/uart/uart.c:210
}
    287e:	1c18      	adds	r0, r3, #0
    2880:	46bd      	mov	sp, r7
    2882:	b006      	add	sp, #24
    2884:	bd80      	pop	{r7, pc}
    2886:	46c0      	nop			; (mov r8, r8)
    2888:	4006a000 	.word	0x4006a000
    288c:	00003ce4 	.word	0x00003ce4
    2890:	0000fbba 	.word	0x0000fbba

00002894 <uart_sendN>:
uart_sendN():
E:\BOBO_KDS\KL25_DS18_GPRS\Debug/../05_Driver/uart/uart.c:221
//         len:发送长度
//函数返回： 函数执行状态：1=发送成功；0=发送失败
//功能概要：串行 接收n个字节   
//======================================================================
uint_8 uart_sendN(uint_8 uartNo ,uint_16 len ,uint_8* buff)
{
    2894:	b580      	push	{r7, lr}
    2896:	b084      	sub	sp, #16
    2898:	af00      	add	r7, sp, #0
    289a:	603a      	str	r2, [r7, #0]
    289c:	1dfb      	adds	r3, r7, #7
    289e:	1c02      	adds	r2, r0, #0
    28a0:	701a      	strb	r2, [r3, #0]
    28a2:	1d3b      	adds	r3, r7, #4
    28a4:	1c0a      	adds	r2, r1, #0
    28a6:	801a      	strh	r2, [r3, #0]
E:\BOBO_KDS\KL25_DS18_GPRS\Debug/../05_Driver/uart/uart.c:225
    uint_16 i;

    //判断传入串口号参数是否有误，有误直接退出
    if(!uart_is_uartNo(uartNo))
    28a8:	1dfb      	adds	r3, r7, #7
    28aa:	781b      	ldrb	r3, [r3, #0]
    28ac:	1c18      	adds	r0, r3, #0
    28ae:	f000 f98f 	bl	2bd0 <uart_is_uartNo>
    28b2:	1c03      	adds	r3, r0, #0
    28b4:	2b00      	cmp	r3, #0
    28b6:	d101      	bne.n	28bc <uart_sendN+0x28>
E:\BOBO_KDS\KL25_DS18_GPRS\Debug/../05_Driver/uart/uart.c:227
    {
        return 0;
    28b8:	2300      	movs	r3, #0
    28ba:	e02c      	b.n	2916 <uart_sendN+0x82>
E:\BOBO_KDS\KL25_DS18_GPRS\Debug/../05_Driver/uart/uart.c:230
    }

    for (i = 0; i < len; i++)
    28bc:	1c3b      	adds	r3, r7, #0
    28be:	330e      	adds	r3, #14
    28c0:	2200      	movs	r2, #0
    28c2:	801a      	strh	r2, [r3, #0]
    28c4:	e016      	b.n	28f4 <uart_sendN+0x60>
E:\BOBO_KDS\KL25_DS18_GPRS\Debug/../05_Driver/uart/uart.c:232
    {
        if (! uart_send1(uartNo, buff[i])) //发送一个字节数据，失败则跳出循环
    28c6:	1c3b      	adds	r3, r7, #0
    28c8:	330e      	adds	r3, #14
    28ca:	881b      	ldrh	r3, [r3, #0]
    28cc:	683a      	ldr	r2, [r7, #0]
    28ce:	18d3      	adds	r3, r2, r3
    28d0:	781b      	ldrb	r3, [r3, #0]
    28d2:	1dfa      	adds	r2, r7, #7
    28d4:	7812      	ldrb	r2, [r2, #0]
    28d6:	1c10      	adds	r0, r2, #0
    28d8:	1c19      	adds	r1, r3, #0
    28da:	f7ff ff87 	bl	27ec <uart_send1>
    28de:	1c03      	adds	r3, r0, #0
    28e0:	2b00      	cmp	r3, #0
    28e2:	d100      	bne.n	28e6 <uart_sendN+0x52>
E:\BOBO_KDS\KL25_DS18_GPRS\Debug/../05_Driver/uart/uart.c:234
        {
            break;
    28e4:	e00d      	b.n	2902 <uart_sendN+0x6e>
E:\BOBO_KDS\KL25_DS18_GPRS\Debug/../05_Driver/uart/uart.c:230
    if(!uart_is_uartNo(uartNo))
    {
        return 0;
    }

    for (i = 0; i < len; i++)
    28e6:	1c3b      	adds	r3, r7, #0
    28e8:	330e      	adds	r3, #14
    28ea:	881a      	ldrh	r2, [r3, #0]
    28ec:	1c3b      	adds	r3, r7, #0
    28ee:	330e      	adds	r3, #14
    28f0:	3201      	adds	r2, #1
    28f2:	801a      	strh	r2, [r3, #0]
E:\BOBO_KDS\KL25_DS18_GPRS\Debug/../05_Driver/uart/uart.c:230 (discriminator 1)
    28f4:	1c3a      	adds	r2, r7, #0
    28f6:	320e      	adds	r2, #14
    28f8:	1d3b      	adds	r3, r7, #4
    28fa:	8812      	ldrh	r2, [r2, #0]
    28fc:	881b      	ldrh	r3, [r3, #0]
    28fe:	429a      	cmp	r2, r3
    2900:	d3e1      	bcc.n	28c6 <uart_sendN+0x32>
E:\BOBO_KDS\KL25_DS18_GPRS\Debug/../05_Driver/uart/uart.c:237
        if (! uart_send1(uartNo, buff[i])) //发送一个字节数据，失败则跳出循环
        {
            break;
        }
    }
    if(i<len)
    2902:	1c3a      	adds	r2, r7, #0
    2904:	320e      	adds	r2, #14
    2906:	1d3b      	adds	r3, r7, #4
    2908:	8812      	ldrh	r2, [r2, #0]
    290a:	881b      	ldrh	r3, [r3, #0]
    290c:	429a      	cmp	r2, r3
    290e:	d201      	bcs.n	2914 <uart_sendN+0x80>
E:\BOBO_KDS\KL25_DS18_GPRS\Debug/../05_Driver/uart/uart.c:238
        return 0;    //发送出错
    2910:	2300      	movs	r3, #0
    2912:	e000      	b.n	2916 <uart_sendN+0x82>
E:\BOBO_KDS\KL25_DS18_GPRS\Debug/../05_Driver/uart/uart.c:240
    else
        return 1;    //发送成功
    2914:	2301      	movs	r3, #1
E:\BOBO_KDS\KL25_DS18_GPRS\Debug/../05_Driver/uart/uart.c:241
}
    2916:	1c18      	adds	r0, r3, #0
    2918:	46bd      	mov	sp, r7
    291a:	b004      	add	sp, #16
    291c:	bd80      	pop	{r7, pc}
    291e:	46c0      	nop			; (mov r8, r8)

00002920 <uart_send_string>:
uart_send_string():
E:\BOBO_KDS\KL25_DS18_GPRS\Debug/../05_Driver/uart/uart.c:251
//          buff:要发送的字符串的首地址
//函数返回： 函数执行状态：1=发送成功；0=发送失败
//功能概要：从指定UART端口发送一个以'\0'结束的字符串
//======================================================================
uint_8 uart_send_string(uint_8 uartNo, void *buff)
{
    2920:	b580      	push	{r7, lr}
    2922:	b084      	sub	sp, #16
    2924:	af00      	add	r7, sp, #0
    2926:	1c02      	adds	r2, r0, #0
    2928:	6039      	str	r1, [r7, #0]
    292a:	1dfb      	adds	r3, r7, #7
    292c:	701a      	strb	r2, [r3, #0]
E:\BOBO_KDS\KL25_DS18_GPRS\Debug/../05_Driver/uart/uart.c:252
    uint_16 i = 0;
    292e:	1c3b      	adds	r3, r7, #0
    2930:	330e      	adds	r3, #14
    2932:	2200      	movs	r2, #0
    2934:	801a      	strh	r2, [r3, #0]
E:\BOBO_KDS\KL25_DS18_GPRS\Debug/../05_Driver/uart/uart.c:253
    uint_8 *buff_ptr = (uint_8 *)buff;     //定义指针指向要发送字符串首地址
    2936:	683b      	ldr	r3, [r7, #0]
    2938:	60bb      	str	r3, [r7, #8]
E:\BOBO_KDS\KL25_DS18_GPRS\Debug/../05_Driver/uart/uart.c:256

    //判断传入串口号参数是否有误，有误直接退出
    if(!uart_is_uartNo(uartNo))
    293a:	1dfb      	adds	r3, r7, #7
    293c:	781b      	ldrb	r3, [r3, #0]
    293e:	1c18      	adds	r0, r3, #0
    2940:	f000 f946 	bl	2bd0 <uart_is_uartNo>
    2944:	1c03      	adds	r3, r0, #0
    2946:	2b00      	cmp	r3, #0
    2948:	d101      	bne.n	294e <uart_send_string+0x2e>
E:\BOBO_KDS\KL25_DS18_GPRS\Debug/../05_Driver/uart/uart.c:258
    {
        return 0;
    294a:	2300      	movs	r3, #0
    294c:	e025      	b.n	299a <uart_send_string+0x7a>
E:\BOBO_KDS\KL25_DS18_GPRS\Debug/../05_Driver/uart/uart.c:261
    }

    for(i = 0; buff_ptr[i] != '\0'; i++)   //遍历字符串里的字符
    294e:	1c3b      	adds	r3, r7, #0
    2950:	330e      	adds	r3, #14
    2952:	2200      	movs	r2, #0
    2954:	801a      	strh	r2, [r3, #0]
    2956:	e017      	b.n	2988 <uart_send_string+0x68>
E:\BOBO_KDS\KL25_DS18_GPRS\Debug/../05_Driver/uart/uart.c:263
    {
        if (!uart_send1(uartNo,buff_ptr[i]))//发送指针对应的字符
    2958:	1c3b      	adds	r3, r7, #0
    295a:	330e      	adds	r3, #14
    295c:	881b      	ldrh	r3, [r3, #0]
    295e:	68ba      	ldr	r2, [r7, #8]
    2960:	18d3      	adds	r3, r2, r3
    2962:	781b      	ldrb	r3, [r3, #0]
    2964:	1dfa      	adds	r2, r7, #7
    2966:	7812      	ldrb	r2, [r2, #0]
    2968:	1c10      	adds	r0, r2, #0
    296a:	1c19      	adds	r1, r3, #0
    296c:	f7ff ff3e 	bl	27ec <uart_send1>
    2970:	1c03      	adds	r3, r0, #0
    2972:	2b00      	cmp	r3, #0
    2974:	d101      	bne.n	297a <uart_send_string+0x5a>
E:\BOBO_KDS\KL25_DS18_GPRS\Debug/../05_Driver/uart/uart.c:264
            return 0;  //发送失败,返回
    2976:	2300      	movs	r3, #0
    2978:	e00f      	b.n	299a <uart_send_string+0x7a>
E:\BOBO_KDS\KL25_DS18_GPRS\Debug/../05_Driver/uart/uart.c:261
    if(!uart_is_uartNo(uartNo))
    {
        return 0;
    }

    for(i = 0; buff_ptr[i] != '\0'; i++)   //遍历字符串里的字符
    297a:	1c3b      	adds	r3, r7, #0
    297c:	330e      	adds	r3, #14
    297e:	881a      	ldrh	r2, [r3, #0]
    2980:	1c3b      	adds	r3, r7, #0
    2982:	330e      	adds	r3, #14
    2984:	3201      	adds	r2, #1
    2986:	801a      	strh	r2, [r3, #0]
E:\BOBO_KDS\KL25_DS18_GPRS\Debug/../05_Driver/uart/uart.c:261 (discriminator 1)
    2988:	1c3b      	adds	r3, r7, #0
    298a:	330e      	adds	r3, #14
    298c:	881b      	ldrh	r3, [r3, #0]
    298e:	68ba      	ldr	r2, [r7, #8]
    2990:	18d3      	adds	r3, r2, r3
    2992:	781b      	ldrb	r3, [r3, #0]
    2994:	2b00      	cmp	r3, #0
    2996:	d1df      	bne.n	2958 <uart_send_string+0x38>
E:\BOBO_KDS\KL25_DS18_GPRS\Debug/../05_Driver/uart/uart.c:266
    {
        if (!uart_send1(uartNo,buff_ptr[i]))//发送指针对应的字符
            return 0;  //发送失败,返回
    }
    return 1;          //发送成功
    2998:	2301      	movs	r3, #1
E:\BOBO_KDS\KL25_DS18_GPRS\Debug/../05_Driver/uart/uart.c:267
}
    299a:	1c18      	adds	r0, r3, #0
    299c:	46bd      	mov	sp, r7
    299e:	b004      	add	sp, #16
    29a0:	bd80      	pop	{r7, pc}
    29a2:	46c0      	nop			; (mov r8, r8)

000029a4 <uart_re1>:
uart_re1():
E:\BOBO_KDS\KL25_DS18_GPRS\Debug/../05_Driver/uart/uart.c:277
//        *fp:接收成功标志的指针:*fp=1:接收成功；*fp=0:接收失败
//函数返回：接收返回字节
//功能概要：串行接收1个字节
//======================================================================
uint_8 uart_re1(uint_8 uartNo,uint_8 *fp)
{
    29a4:	b580      	push	{r7, lr}
    29a6:	b086      	sub	sp, #24
    29a8:	af00      	add	r7, sp, #0
    29aa:	1c02      	adds	r2, r0, #0
    29ac:	6039      	str	r1, [r7, #0]
    29ae:	1dfb      	adds	r3, r7, #7
    29b0:	701a      	strb	r2, [r3, #0]
E:\BOBO_KDS\KL25_DS18_GPRS\Debug/../05_Driver/uart/uart.c:280
    uint_32 t;
    uint_8  dat;
    UART0_MemMapPtr uartch_0=UART0_BASE_PTR; //获取UART0基地址
    29b2:	4b2b      	ldr	r3, [pc, #172]	; (2a60 <uart_re1+0xbc>)
    29b4:	60fb      	str	r3, [r7, #12]
E:\BOBO_KDS\KL25_DS18_GPRS\Debug/../05_Driver/uart/uart.c:281
    UART_MemMapPtr uartch_1_2 = UART_ARR[uartNo-1]; //获取UART1或者2基地址
    29b6:	1dfb      	adds	r3, r7, #7
    29b8:	781b      	ldrb	r3, [r3, #0]
    29ba:	1e5a      	subs	r2, r3, #1
    29bc:	4b29      	ldr	r3, [pc, #164]	; (2a64 <uart_re1+0xc0>)
    29be:	0092      	lsls	r2, r2, #2
    29c0:	58d3      	ldr	r3, [r2, r3]
    29c2:	60bb      	str	r3, [r7, #8]
E:\BOBO_KDS\KL25_DS18_GPRS\Debug/../05_Driver/uart/uart.c:284

    //判断传入串口号参数是否有误，有误直接退出
    if(!uart_is_uartNo(uartNo))
    29c4:	1dfb      	adds	r3, r7, #7
    29c6:	781b      	ldrb	r3, [r3, #0]
    29c8:	1c18      	adds	r0, r3, #0
    29ca:	f000 f901 	bl	2bd0 <uart_is_uartNo>
    29ce:	1c03      	adds	r3, r0, #0
    29d0:	2b00      	cmp	r3, #0
    29d2:	d104      	bne.n	29de <uart_re1+0x3a>
E:\BOBO_KDS\KL25_DS18_GPRS\Debug/../05_Driver/uart/uart.c:286
    {
        *fp=0;
    29d4:	683b      	ldr	r3, [r7, #0]
    29d6:	2200      	movs	r2, #0
    29d8:	701a      	strb	r2, [r3, #0]
E:\BOBO_KDS\KL25_DS18_GPRS\Debug/../05_Driver/uart/uart.c:287
        return 0;
    29da:	2300      	movs	r3, #0
    29dc:	e03b      	b.n	2a56 <uart_re1+0xb2>
E:\BOBO_KDS\KL25_DS18_GPRS\Debug/../05_Driver/uart/uart.c:290
    }

    for (t = 0; t < 0xFBBB; t++)//查询指定次数
    29de:	2300      	movs	r3, #0
    29e0:	617b      	str	r3, [r7, #20]
    29e2:	e026      	b.n	2a32 <uart_re1+0x8e>
E:\BOBO_KDS\KL25_DS18_GPRS\Debug/../05_Driver/uart/uart.c:292
    {
        if(0==uartNo)  //判断使用的哪个串口
    29e4:	1dfb      	adds	r3, r7, #7
    29e6:	781b      	ldrb	r3, [r3, #0]
    29e8:	2b00      	cmp	r3, #0
    29ea:	d10f      	bne.n	2a0c <uart_re1+0x68>
E:\BOBO_KDS\KL25_DS18_GPRS\Debug/../05_Driver/uart/uart.c:295
        {
        //判断接收缓冲区是否满
        if (UART0_S1_REG(uartch_0) & UART0_S1_RDRF_MASK)
    29ec:	68fb      	ldr	r3, [r7, #12]
    29ee:	791b      	ldrb	r3, [r3, #4]
    29f0:	b2db      	uxtb	r3, r3
    29f2:	1c1a      	adds	r2, r3, #0
    29f4:	2320      	movs	r3, #32
    29f6:	4013      	ands	r3, r2
    29f8:	d018      	beq.n	2a2c <uart_re1+0x88>
E:\BOBO_KDS\KL25_DS18_GPRS\Debug/../05_Driver/uart/uart.c:297
            {
                dat=UART0_D_REG(uartch_0);    //获取数据,清接收中断位
    29fa:	1c3b      	adds	r3, r7, #0
    29fc:	3313      	adds	r3, #19
    29fe:	68fa      	ldr	r2, [r7, #12]
    2a00:	79d2      	ldrb	r2, [r2, #7]
    2a02:	701a      	strb	r2, [r3, #0]
E:\BOBO_KDS\KL25_DS18_GPRS\Debug/../05_Driver/uart/uart.c:298
                *fp = 1;  //接收成功
    2a04:	683b      	ldr	r3, [r7, #0]
    2a06:	2201      	movs	r2, #1
    2a08:	701a      	strb	r2, [r3, #0]
E:\BOBO_KDS\KL25_DS18_GPRS\Debug/../05_Driver/uart/uart.c:299
                break;
    2a0a:	e016      	b.n	2a3a <uart_re1+0x96>
E:\BOBO_KDS\KL25_DS18_GPRS\Debug/../05_Driver/uart/uart.c:305
            }
        }
        else
        {
            //判断接收缓冲区是否满
            if(UART_S1_REG(uartch_1_2) & UART_S1_RDRF_MASK)
    2a0c:	68bb      	ldr	r3, [r7, #8]
    2a0e:	791b      	ldrb	r3, [r3, #4]
    2a10:	b2db      	uxtb	r3, r3
    2a12:	1c1a      	adds	r2, r3, #0
    2a14:	2320      	movs	r3, #32
    2a16:	4013      	ands	r3, r2
    2a18:	d008      	beq.n	2a2c <uart_re1+0x88>
E:\BOBO_KDS\KL25_DS18_GPRS\Debug/../05_Driver/uart/uart.c:307
            {
                dat=UART_D_REG(uartch_1_2);    //获取数据,清接收中断位
    2a1a:	1c3b      	adds	r3, r7, #0
    2a1c:	3313      	adds	r3, #19
    2a1e:	68ba      	ldr	r2, [r7, #8]
    2a20:	79d2      	ldrb	r2, [r2, #7]
    2a22:	701a      	strb	r2, [r3, #0]
E:\BOBO_KDS\KL25_DS18_GPRS\Debug/../05_Driver/uart/uart.c:308
                *fp= 1;  //接收成功
    2a24:	683b      	ldr	r3, [r7, #0]
    2a26:	2201      	movs	r2, #1
    2a28:	701a      	strb	r2, [r3, #0]
E:\BOBO_KDS\KL25_DS18_GPRS\Debug/../05_Driver/uart/uart.c:309
                break;
    2a2a:	e006      	b.n	2a3a <uart_re1+0x96>
E:\BOBO_KDS\KL25_DS18_GPRS\Debug/../05_Driver/uart/uart.c:290
    {
        *fp=0;
        return 0;
    }

    for (t = 0; t < 0xFBBB; t++)//查询指定次数
    2a2c:	697b      	ldr	r3, [r7, #20]
    2a2e:	3301      	adds	r3, #1
    2a30:	617b      	str	r3, [r7, #20]
E:\BOBO_KDS\KL25_DS18_GPRS\Debug/../05_Driver/uart/uart.c:290 (discriminator 1)
    2a32:	697a      	ldr	r2, [r7, #20]
    2a34:	4b0c      	ldr	r3, [pc, #48]	; (2a68 <uart_re1+0xc4>)
    2a36:	429a      	cmp	r2, r3
    2a38:	d9d4      	bls.n	29e4 <uart_re1+0x40>
E:\BOBO_KDS\KL25_DS18_GPRS\Debug/../05_Driver/uart/uart.c:313
                *fp= 1;  //接收成功
                break;
            }
        }
    }//end for
    if(t >= 0xFBBB) 
    2a3a:	697a      	ldr	r2, [r7, #20]
    2a3c:	4b0a      	ldr	r3, [pc, #40]	; (2a68 <uart_re1+0xc4>)
    2a3e:	429a      	cmp	r2, r3
    2a40:	d906      	bls.n	2a50 <uart_re1+0xac>
E:\BOBO_KDS\KL25_DS18_GPRS\Debug/../05_Driver/uart/uart.c:315
    {
        dat = 0xFF; 
    2a42:	1c3b      	adds	r3, r7, #0
    2a44:	3313      	adds	r3, #19
    2a46:	22ff      	movs	r2, #255	; 0xff
    2a48:	701a      	strb	r2, [r3, #0]
E:\BOBO_KDS\KL25_DS18_GPRS\Debug/../05_Driver/uart/uart.c:316
        *fp = 0;    //未收到数据
    2a4a:	683b      	ldr	r3, [r7, #0]
    2a4c:	2200      	movs	r2, #0
    2a4e:	701a      	strb	r2, [r3, #0]
E:\BOBO_KDS\KL25_DS18_GPRS\Debug/../05_Driver/uart/uart.c:318
    }
    return dat;    //返回接收到的数据
    2a50:	1c3b      	adds	r3, r7, #0
    2a52:	3313      	adds	r3, #19
    2a54:	781b      	ldrb	r3, [r3, #0]
E:\BOBO_KDS\KL25_DS18_GPRS\Debug/../05_Driver/uart/uart.c:319
}
    2a56:	1c18      	adds	r0, r3, #0
    2a58:	46bd      	mov	sp, r7
    2a5a:	b006      	add	sp, #24
    2a5c:	bd80      	pop	{r7, pc}
    2a5e:	46c0      	nop			; (mov r8, r8)
    2a60:	4006a000 	.word	0x4006a000
    2a64:	00003ce4 	.word	0x00003ce4
    2a68:	0000fbba 	.word	0x0000fbba

00002a6c <uart_enable_re_int>:
uart_enable_re_int():
E:\BOBO_KDS\KL25_DS18_GPRS\Debug/../05_Driver/uart/uart.c:358
//参数说明：uartNo: 串口号:UART_0、UART_1、UART_2 
//函数返回：无
//功能概要：开串口接收中断
//======================================================================
void uart_enable_re_int(uint_8 uartNo)
{
    2a6c:	b580      	push	{r7, lr}
    2a6e:	b084      	sub	sp, #16
    2a70:	af00      	add	r7, sp, #0
    2a72:	1c02      	adds	r2, r0, #0
    2a74:	1dfb      	adds	r3, r7, #7
    2a76:	701a      	strb	r2, [r3, #0]
E:\BOBO_KDS\KL25_DS18_GPRS\Debug/../05_Driver/uart/uart.c:359
    UART0_MemMapPtr uartch_0=UART0_BASE_PTR; //获取UART0基地址
    2a78:	4b18      	ldr	r3, [pc, #96]	; (2adc <uart_enable_re_int+0x70>)
    2a7a:	60fb      	str	r3, [r7, #12]
E:\BOBO_KDS\KL25_DS18_GPRS\Debug/../05_Driver/uart/uart.c:360
    UART_MemMapPtr uartch_1_2 = UART_ARR[uartNo-1]; //获取UART1或者2基地址
    2a7c:	1dfb      	adds	r3, r7, #7
    2a7e:	781b      	ldrb	r3, [r3, #0]
    2a80:	1e5a      	subs	r2, r3, #1
    2a82:	4b17      	ldr	r3, [pc, #92]	; (2ae0 <uart_enable_re_int+0x74>)
    2a84:	0092      	lsls	r2, r2, #2
    2a86:	58d3      	ldr	r3, [r2, r3]
    2a88:	60bb      	str	r3, [r7, #8]
E:\BOBO_KDS\KL25_DS18_GPRS\Debug/../05_Driver/uart/uart.c:363

    //判断传入串口号参数是否有误，有误直接退出
    if(!uart_is_uartNo(uartNo))
    2a8a:	1dfb      	adds	r3, r7, #7
    2a8c:	781b      	ldrb	r3, [r3, #0]
    2a8e:	1c18      	adds	r0, r3, #0
    2a90:	f000 f89e 	bl	2bd0 <uart_is_uartNo>
    2a94:	1c03      	adds	r3, r0, #0
    2a96:	2b00      	cmp	r3, #0
    2a98:	d100      	bne.n	2a9c <uart_enable_re_int+0x30>
E:\BOBO_KDS\KL25_DS18_GPRS\Debug/../05_Driver/uart/uart.c:365
    {
        return;
    2a9a:	e01c      	b.n	2ad6 <uart_enable_re_int+0x6a>
E:\BOBO_KDS\KL25_DS18_GPRS\Debug/../05_Driver/uart/uart.c:368
    }

    if(0 == uartNo)
    2a9c:	1dfb      	adds	r3, r7, #7
    2a9e:	781b      	ldrb	r3, [r3, #0]
    2aa0:	2b00      	cmp	r3, #0
    2aa2:	d108      	bne.n	2ab6 <uart_enable_re_int+0x4a>
E:\BOBO_KDS\KL25_DS18_GPRS\Debug/../05_Driver/uart/uart.c:369
        UART0_C2_REG(uartch_0) |= UART0_C2_RIE_MASK;    //开放UART接收中断
    2aa4:	68fb      	ldr	r3, [r7, #12]
    2aa6:	78db      	ldrb	r3, [r3, #3]
    2aa8:	b2db      	uxtb	r3, r3
    2aaa:	2220      	movs	r2, #32
    2aac:	4313      	orrs	r3, r2
    2aae:	b2da      	uxtb	r2, r3
    2ab0:	68fb      	ldr	r3, [r7, #12]
    2ab2:	70da      	strb	r2, [r3, #3]
    2ab4:	e007      	b.n	2ac6 <uart_enable_re_int+0x5a>
E:\BOBO_KDS\KL25_DS18_GPRS\Debug/../05_Driver/uart/uart.c:371
    else 
        UART_C2_REG(uartch_1_2) |= UART_C2_RIE_MASK;    //开放UART接收中断
    2ab6:	68bb      	ldr	r3, [r7, #8]
    2ab8:	78db      	ldrb	r3, [r3, #3]
    2aba:	b2db      	uxtb	r3, r3
    2abc:	2220      	movs	r2, #32
    2abe:	4313      	orrs	r3, r2
    2ac0:	b2da      	uxtb	r2, r3
    2ac2:	68bb      	ldr	r3, [r7, #8]
    2ac4:	70da      	strb	r2, [r3, #3]
E:\BOBO_KDS\KL25_DS18_GPRS\Debug/../05_Driver/uart/uart.c:372
    NVIC_EnableIRQ(table_irq_uart[uartNo]);    //开中断控制器IRQ中断
    2ac6:	1dfb      	adds	r3, r7, #7
    2ac8:	781b      	ldrb	r3, [r3, #0]
    2aca:	4a06      	ldr	r2, [pc, #24]	; (2ae4 <uart_enable_re_int+0x78>)
    2acc:	5cd3      	ldrb	r3, [r2, r3]
    2ace:	b25b      	sxtb	r3, r3
    2ad0:	1c18      	adds	r0, r3, #0
    2ad2:	f7ff fd27 	bl	2524 <NVIC_EnableIRQ>
E:\BOBO_KDS\KL25_DS18_GPRS\Debug/../05_Driver/uart/uart.c:373
}
    2ad6:	46bd      	mov	sp, r7
    2ad8:	b004      	add	sp, #16
    2ada:	bd80      	pop	{r7, pc}
    2adc:	4006a000 	.word	0x4006a000
    2ae0:	00003ce4 	.word	0x00003ce4
    2ae4:	1ffff004 	.word	0x1ffff004

00002ae8 <uart_get_re_int>:
uart_get_re_int():
E:\BOBO_KDS\KL25_DS18_GPRS\Debug/../05_Driver/uart/uart.c:406
//参数说明：uartNo: 串口号 :UART_0、UART_1、UART_2
//函数返回：接收中断标志 1=有接收中断;0=无接收中断
//功能概要：获取串口接收中断标志,同时禁用发送中断
//======================================================================
uint_8 uart_get_re_int(uint_8 uartNo)
{
    2ae8:	b580      	push	{r7, lr}
    2aea:	b086      	sub	sp, #24
    2aec:	af00      	add	r7, sp, #0
    2aee:	1c02      	adds	r2, r0, #0
    2af0:	1dfb      	adds	r3, r7, #7
    2af2:	701a      	strb	r2, [r3, #0]
E:\BOBO_KDS\KL25_DS18_GPRS\Debug/../05_Driver/uart/uart.c:408
    uint_8 flag;
    UART0_MemMapPtr uartch_0=UART0_BASE_PTR; //获取UART0基地址
    2af4:	4b34      	ldr	r3, [pc, #208]	; (2bc8 <uart_get_re_int+0xe0>)
    2af6:	617b      	str	r3, [r7, #20]
E:\BOBO_KDS\KL25_DS18_GPRS\Debug/../05_Driver/uart/uart.c:409
    UART_MemMapPtr uartch_1_2 = UART_ARR[uartNo-1]; //获取UART1或者2基地址
    2af8:	1dfb      	adds	r3, r7, #7
    2afa:	781b      	ldrb	r3, [r3, #0]
    2afc:	1e5a      	subs	r2, r3, #1
    2afe:	4b33      	ldr	r3, [pc, #204]	; (2bcc <uart_get_re_int+0xe4>)
    2b00:	0092      	lsls	r2, r2, #2
    2b02:	58d3      	ldr	r3, [r2, r3]
    2b04:	613b      	str	r3, [r7, #16]
E:\BOBO_KDS\KL25_DS18_GPRS\Debug/../05_Driver/uart/uart.c:412

    //判断传入串口号参数是否有误，有误直接退出
    if(!uart_is_uartNo(uartNo))
    2b06:	1dfb      	adds	r3, r7, #7
    2b08:	781b      	ldrb	r3, [r3, #0]
    2b0a:	1c18      	adds	r0, r3, #0
    2b0c:	f000 f860 	bl	2bd0 <uart_is_uartNo>
    2b10:	1c03      	adds	r3, r0, #0
    2b12:	2b00      	cmp	r3, #0
    2b14:	d101      	bne.n	2b1a <uart_get_re_int+0x32>
E:\BOBO_KDS\KL25_DS18_GPRS\Debug/../05_Driver/uart/uart.c:414
    {
        return 0;
    2b16:	2300      	movs	r3, #0
    2b18:	e052      	b.n	2bc0 <uart_get_re_int+0xd8>
E:\BOBO_KDS\KL25_DS18_GPRS\Debug/../05_Driver/uart/uart.c:417
    }

    if(0==uartNo)
    2b1a:	1dfb      	adds	r3, r7, #7
    2b1c:	781b      	ldrb	r3, [r3, #0]
    2b1e:	2b00      	cmp	r3, #0
    2b20:	d127      	bne.n	2b72 <uart_get_re_int+0x8a>
E:\BOBO_KDS\KL25_DS18_GPRS\Debug/../05_Driver/uart/uart.c:420
    {
        //禁用串口发送中断，防止误中断
        UART0_C2_REG(uartch_0) &= (~UART0_C2_TIE_MASK);
    2b22:	697b      	ldr	r3, [r7, #20]
    2b24:	78db      	ldrb	r3, [r3, #3]
    2b26:	b2da      	uxtb	r2, r3
    2b28:	237f      	movs	r3, #127	; 0x7f
    2b2a:	4013      	ands	r3, r2
    2b2c:	b2da      	uxtb	r2, r3
    2b2e:	697b      	ldr	r3, [r7, #20]
    2b30:	70da      	strb	r2, [r3, #3]
E:\BOBO_KDS\KL25_DS18_GPRS\Debug/../05_Driver/uart/uart.c:422
        //获取接收中断标志，需同时判断RDRF和RIE
        flag= UART0_S1_REG(uartch_0) & (UART0_S1_RDRF_MASK);
    2b32:	697b      	ldr	r3, [r7, #20]
    2b34:	791b      	ldrb	r3, [r3, #4]
    2b36:	b2d9      	uxtb	r1, r3
    2b38:	1c3b      	adds	r3, r7, #0
    2b3a:	330f      	adds	r3, #15
    2b3c:	2220      	movs	r2, #32
    2b3e:	400a      	ands	r2, r1
    2b40:	701a      	strb	r2, [r3, #0]
E:\BOBO_KDS\KL25_DS18_GPRS\Debug/../05_Driver/uart/uart.c:423
        return(BGET(UART0_S1_RDRF_SHIFT,flag)
    2b42:	1c3b      	adds	r3, r7, #0
    2b44:	330f      	adds	r3, #15
    2b46:	781b      	ldrb	r3, [r3, #0]
    2b48:	095b      	lsrs	r3, r3, #5
    2b4a:	b2db      	uxtb	r3, r3
    2b4c:	b2db      	uxtb	r3, r3
    2b4e:	1c1a      	adds	r2, r3, #0
    2b50:	2301      	movs	r3, #1
    2b52:	4013      	ands	r3, r2
    2b54:	b2db      	uxtb	r3, r3
E:\BOBO_KDS\KL25_DS18_GPRS\Debug/../05_Driver/uart/uart.c:424
                & BGET(UART0_C2_RIE_SHIFT,UART0_C2_REG(uartch_0)));
    2b56:	697a      	ldr	r2, [r7, #20]
    2b58:	78d2      	ldrb	r2, [r2, #3]
    2b5a:	b2d2      	uxtb	r2, r2
E:\BOBO_KDS\KL25_DS18_GPRS\Debug/../05_Driver/uart/uart.c:423
    {
        //禁用串口发送中断，防止误中断
        UART0_C2_REG(uartch_0) &= (~UART0_C2_TIE_MASK);
        //获取接收中断标志，需同时判断RDRF和RIE
        flag= UART0_S1_REG(uartch_0) & (UART0_S1_RDRF_MASK);
        return(BGET(UART0_S1_RDRF_SHIFT,flag)
    2b5c:	0952      	lsrs	r2, r2, #5
    2b5e:	b2d2      	uxtb	r2, r2
    2b60:	b2d2      	uxtb	r2, r2
    2b62:	1c11      	adds	r1, r2, #0
    2b64:	2201      	movs	r2, #1
    2b66:	400a      	ands	r2, r1
    2b68:	b2d2      	uxtb	r2, r2
    2b6a:	4013      	ands	r3, r2
    2b6c:	b2db      	uxtb	r3, r3
    2b6e:	b2db      	uxtb	r3, r3
    2b70:	e026      	b.n	2bc0 <uart_get_re_int+0xd8>
E:\BOBO_KDS\KL25_DS18_GPRS\Debug/../05_Driver/uart/uart.c:429
                & BGET(UART0_C2_RIE_SHIFT,UART0_C2_REG(uartch_0)));
    }
    else
    {
        //禁用串口发送中断，防止误中断
        UART_C2_REG(uartch_1_2) &= (~UART_C2_TIE_MASK);
    2b72:	693b      	ldr	r3, [r7, #16]
    2b74:	78db      	ldrb	r3, [r3, #3]
    2b76:	b2da      	uxtb	r2, r3
    2b78:	237f      	movs	r3, #127	; 0x7f
    2b7a:	4013      	ands	r3, r2
    2b7c:	b2da      	uxtb	r2, r3
    2b7e:	693b      	ldr	r3, [r7, #16]
    2b80:	70da      	strb	r2, [r3, #3]
E:\BOBO_KDS\KL25_DS18_GPRS\Debug/../05_Driver/uart/uart.c:431
        //获取接收中断标志，需同时判断RDRF和RIE
        flag= UART_S1_REG(uartch_1_2) & (UART_S1_RDRF_MASK);
    2b82:	693b      	ldr	r3, [r7, #16]
    2b84:	791b      	ldrb	r3, [r3, #4]
    2b86:	b2d9      	uxtb	r1, r3
    2b88:	1c3b      	adds	r3, r7, #0
    2b8a:	330f      	adds	r3, #15
    2b8c:	2220      	movs	r2, #32
    2b8e:	400a      	ands	r2, r1
    2b90:	701a      	strb	r2, [r3, #0]
E:\BOBO_KDS\KL25_DS18_GPRS\Debug/../05_Driver/uart/uart.c:432
        return(BGET(UART_S1_RDRF_SHIFT,flag)
    2b92:	1c3b      	adds	r3, r7, #0
    2b94:	330f      	adds	r3, #15
    2b96:	781b      	ldrb	r3, [r3, #0]
    2b98:	095b      	lsrs	r3, r3, #5
    2b9a:	b2db      	uxtb	r3, r3
    2b9c:	b2db      	uxtb	r3, r3
    2b9e:	1c1a      	adds	r2, r3, #0
    2ba0:	2301      	movs	r3, #1
    2ba2:	4013      	ands	r3, r2
    2ba4:	b2db      	uxtb	r3, r3
E:\BOBO_KDS\KL25_DS18_GPRS\Debug/../05_Driver/uart/uart.c:433
                & BGET(UART_C2_RIE_SHIFT,UART_C2_REG(uartch_1_2)));
    2ba6:	693a      	ldr	r2, [r7, #16]
    2ba8:	78d2      	ldrb	r2, [r2, #3]
    2baa:	b2d2      	uxtb	r2, r2
E:\BOBO_KDS\KL25_DS18_GPRS\Debug/../05_Driver/uart/uart.c:432
    {
        //禁用串口发送中断，防止误中断
        UART_C2_REG(uartch_1_2) &= (~UART_C2_TIE_MASK);
        //获取接收中断标志，需同时判断RDRF和RIE
        flag= UART_S1_REG(uartch_1_2) & (UART_S1_RDRF_MASK);
        return(BGET(UART_S1_RDRF_SHIFT,flag)
    2bac:	0952      	lsrs	r2, r2, #5
    2bae:	b2d2      	uxtb	r2, r2
    2bb0:	b2d2      	uxtb	r2, r2
    2bb2:	1c11      	adds	r1, r2, #0
    2bb4:	2201      	movs	r2, #1
    2bb6:	400a      	ands	r2, r1
    2bb8:	b2d2      	uxtb	r2, r2
    2bba:	4013      	ands	r3, r2
    2bbc:	b2db      	uxtb	r3, r3
    2bbe:	b2db      	uxtb	r3, r3
E:\BOBO_KDS\KL25_DS18_GPRS\Debug/../05_Driver/uart/uart.c:435
                & BGET(UART_C2_RIE_SHIFT,UART_C2_REG(uartch_1_2)));
    }
}
    2bc0:	1c18      	adds	r0, r3, #0
    2bc2:	46bd      	mov	sp, r7
    2bc4:	b006      	add	sp, #24
    2bc6:	bd80      	pop	{r7, pc}
    2bc8:	4006a000 	.word	0x4006a000
    2bcc:	00003ce4 	.word	0x00003ce4

00002bd0 <uart_is_uartNo>:
uart_is_uartNo():
E:\BOBO_KDS\KL25_DS18_GPRS\Debug/../05_Driver/uart/uart.c:445
//函数返回：1:串口号在合理范围内，0：串口号不合理
//参数说明：串口号uartNo  :UART_0、UART_1、UART_2
//功能概要：为程序健壮性而判断uartNo是否在串口数字范围内
//=====================================================================
uint_8 uart_is_uartNo(uint_8 uartNo)
{
    2bd0:	b580      	push	{r7, lr}
    2bd2:	b082      	sub	sp, #8
    2bd4:	af00      	add	r7, sp, #0
    2bd6:	1c02      	adds	r2, r0, #0
    2bd8:	1dfb      	adds	r3, r7, #7
    2bda:	701a      	strb	r2, [r3, #0]
E:\BOBO_KDS\KL25_DS18_GPRS\Debug/../05_Driver/uart/uart.c:446
    if(uartNo < UART_0 || uartNo > UART_2)
    2bdc:	1dfb      	adds	r3, r7, #7
    2bde:	781b      	ldrb	r3, [r3, #0]
    2be0:	2b02      	cmp	r3, #2
    2be2:	d901      	bls.n	2be8 <uart_is_uartNo+0x18>
E:\BOBO_KDS\KL25_DS18_GPRS\Debug/../05_Driver/uart/uart.c:447
        return 0;
    2be4:	2300      	movs	r3, #0
    2be6:	e000      	b.n	2bea <uart_is_uartNo+0x1a>
E:\BOBO_KDS\KL25_DS18_GPRS\Debug/../05_Driver/uart/uart.c:449
    else
        return 1;
    2be8:	2301      	movs	r3, #1
E:\BOBO_KDS\KL25_DS18_GPRS\Debug/../05_Driver/uart/uart.c:450
}
    2bea:	1c18      	adds	r0, r3, #0
    2bec:	46bd      	mov	sp, r7
    2bee:	b002      	add	sp, #8
    2bf0:	bd80      	pop	{r7, pc}
    2bf2:	46c0      	nop			; (mov r8, r8)

00002bf4 <NVIC_EnableIRQ>:
NVIC_EnableIRQ():
E:/BOBO_KDS/KL25_DS18_GPRS/02_CPU/core_cm0plus.h:684
    The function enables a device-specific interrupt in the NVIC interrupt controller.

    \param [in]      IRQn  External interrupt number. Value cannot be negative.
 */
__STATIC_INLINE void NVIC_EnableIRQ(IRQn_Type IRQn)
{
    2bf4:	b580      	push	{r7, lr}
    2bf6:	b082      	sub	sp, #8
    2bf8:	af00      	add	r7, sp, #0
    2bfa:	1c02      	adds	r2, r0, #0
    2bfc:	1dfb      	adds	r3, r7, #7
    2bfe:	701a      	strb	r2, [r3, #0]
E:/BOBO_KDS/KL25_DS18_GPRS/02_CPU/core_cm0plus.h:685
  NVIC->ISER[0] = (uint32_t)(1UL << (((uint32_t)(int32_t)IRQn) & 0x1FUL));
    2c00:	4b06      	ldr	r3, [pc, #24]	; (2c1c <NVIC_EnableIRQ+0x28>)
    2c02:	1dfa      	adds	r2, r7, #7
    2c04:	7812      	ldrb	r2, [r2, #0]
    2c06:	1c11      	adds	r1, r2, #0
    2c08:	221f      	movs	r2, #31
    2c0a:	400a      	ands	r2, r1
    2c0c:	2101      	movs	r1, #1
    2c0e:	1c08      	adds	r0, r1, #0
    2c10:	4090      	lsls	r0, r2
    2c12:	1c02      	adds	r2, r0, #0
    2c14:	601a      	str	r2, [r3, #0]
E:/BOBO_KDS/KL25_DS18_GPRS/02_CPU/core_cm0plus.h:686
}
    2c16:	46bd      	mov	sp, r7
    2c18:	b002      	add	sp, #8
    2c1a:	bd80      	pop	{r7, pc}
    2c1c:	e000e100 	.word	0xe000e100

00002c20 <tpm_timer_init>:
tpm_timer_init():
E:\BOBO_KDS\KL25_DS18_GPRS\Debug/../05_Driver/tpm/tpm.c:25
//       f：单位：Khz，取值：375、750、1500、3000、6000、12000、24000、48000
//       MOD_Value：单位：ms，范围取决于计数器频率与计数器位数（16位）
//函数返回：无
//===================================================================
void tpm_timer_init(uint_16 TPM_i,uint32_t f,float MOD_Value)
{
    2c20:	b590      	push	{r4, r7, lr}
    2c22:	b087      	sub	sp, #28
    2c24:	af00      	add	r7, sp, #0
    2c26:	60b9      	str	r1, [r7, #8]
    2c28:	607a      	str	r2, [r7, #4]
    2c2a:	1c3b      	adds	r3, r7, #0
    2c2c:	330e      	adds	r3, #14
    2c2e:	1c02      	adds	r2, r0, #0
    2c30:	801a      	strh	r2, [r3, #0]
E:\BOBO_KDS\KL25_DS18_GPRS\Debug/../05_Driver/tpm/tpm.c:29
    //局部变量声明
    uint_32 clk_f,clk_div;
    //1. 开启SIM时钟门
    BSET(SIM_SCGC6_TPM0_SHIFT+TPM_i,SIM_SCGC6);
    2c32:	4a32      	ldr	r2, [pc, #200]	; (2cfc <tpm_timer_init+0xdc>)
    2c34:	4931      	ldr	r1, [pc, #196]	; (2cfc <tpm_timer_init+0xdc>)
    2c36:	4b32      	ldr	r3, [pc, #200]	; (2d00 <tpm_timer_init+0xe0>)
    2c38:	58c9      	ldr	r1, [r1, r3]
    2c3a:	1c3b      	adds	r3, r7, #0
    2c3c:	330e      	adds	r3, #14
    2c3e:	881b      	ldrh	r3, [r3, #0]
    2c40:	3318      	adds	r3, #24
    2c42:	2001      	movs	r0, #1
    2c44:	1c04      	adds	r4, r0, #0
    2c46:	409c      	lsls	r4, r3
    2c48:	1c23      	adds	r3, r4, #0
    2c4a:	4319      	orrs	r1, r3
    2c4c:	4b2c      	ldr	r3, [pc, #176]	; (2d00 <tpm_timer_init+0xe0>)
    2c4e:	50d1      	str	r1, [r2, r3]
E:\BOBO_KDS\KL25_DS18_GPRS\Debug/../05_Driver/tpm/tpm.c:31
    //2.开启时钟，默认选择用PLL/2时钟源，即48MHz
    SIM_SOPT2 |= SIM_SOPT2_TPMSRC(1);
    2c50:	4a2a      	ldr	r2, [pc, #168]	; (2cfc <tpm_timer_init+0xdc>)
    2c52:	492a      	ldr	r1, [pc, #168]	; (2cfc <tpm_timer_init+0xdc>)
    2c54:	4b2b      	ldr	r3, [pc, #172]	; (2d04 <tpm_timer_init+0xe4>)
    2c56:	58cb      	ldr	r3, [r1, r3]
    2c58:	2180      	movs	r1, #128	; 0x80
    2c5a:	0449      	lsls	r1, r1, #17
    2c5c:	4319      	orrs	r1, r3
    2c5e:	4b29      	ldr	r3, [pc, #164]	; (2d04 <tpm_timer_init+0xe4>)
    2c60:	50d1      	str	r1, [r2, r3]
E:\BOBO_KDS\KL25_DS18_GPRS\Debug/../05_Driver/tpm/tpm.c:32
    SIM_SOPT2 |= SIM_SOPT2_PLLFLLSEL_MASK;
    2c62:	4a26      	ldr	r2, [pc, #152]	; (2cfc <tpm_timer_init+0xdc>)
    2c64:	4925      	ldr	r1, [pc, #148]	; (2cfc <tpm_timer_init+0xdc>)
    2c66:	4b27      	ldr	r3, [pc, #156]	; (2d04 <tpm_timer_init+0xe4>)
    2c68:	58cb      	ldr	r3, [r1, r3]
    2c6a:	2180      	movs	r1, #128	; 0x80
    2c6c:	0249      	lsls	r1, r1, #9
    2c6e:	4319      	orrs	r1, r3
    2c70:	4b24      	ldr	r3, [pc, #144]	; (2d04 <tpm_timer_init+0xe4>)
    2c72:	50d1      	str	r1, [r2, r3]
E:\BOBO_KDS\KL25_DS18_GPRS\Debug/../05_Driver/tpm/tpm.c:35
    //3. 由期望的时钟频率f，计算分频因子clk_div。因分频系数clk_f=48000/f,
    //则分频因子clk_div=sqrt(clk_f)。例如：f=3000Khz,则clk_f=16，clk_div=4
    clk_f=48000/f;
    2c74:	4824      	ldr	r0, [pc, #144]	; (2d08 <tpm_timer_init+0xe8>)
    2c76:	68b9      	ldr	r1, [r7, #8]
    2c78:	f7fd fde8 	bl	84c <__aeabi_uidiv>
    2c7c:	1c03      	adds	r3, r0, #0
    2c7e:	617b      	str	r3, [r7, #20]
E:\BOBO_KDS\KL25_DS18_GPRS\Debug/../05_Driver/tpm/tpm.c:36
    while(clk_f>1)
    2c80:	e005      	b.n	2c8e <tpm_timer_init+0x6e>
E:\BOBO_KDS\KL25_DS18_GPRS\Debug/../05_Driver/tpm/tpm.c:38
    {
        clk_div++;
    2c82:	693b      	ldr	r3, [r7, #16]
    2c84:	3301      	adds	r3, #1
    2c86:	613b      	str	r3, [r7, #16]
E:\BOBO_KDS\KL25_DS18_GPRS\Debug/../05_Driver/tpm/tpm.c:39
        clk_f=clk_f/2;
    2c88:	697b      	ldr	r3, [r7, #20]
    2c8a:	085b      	lsrs	r3, r3, #1
    2c8c:	617b      	str	r3, [r7, #20]
E:\BOBO_KDS\KL25_DS18_GPRS\Debug/../05_Driver/tpm/tpm.c:36 (discriminator 1)
    SIM_SOPT2 |= SIM_SOPT2_TPMSRC(1);
    SIM_SOPT2 |= SIM_SOPT2_PLLFLLSEL_MASK;
    //3. 由期望的时钟频率f，计算分频因子clk_div。因分频系数clk_f=48000/f,
    //则分频因子clk_div=sqrt(clk_f)。例如：f=3000Khz,则clk_f=16，clk_div=4
    clk_f=48000/f;
    while(clk_f>1)
    2c8e:	697b      	ldr	r3, [r7, #20]
    2c90:	2b01      	cmp	r3, #1
    2c92:	d8f6      	bhi.n	2c82 <tpm_timer_init+0x62>
E:\BOBO_KDS\KL25_DS18_GPRS\Debug/../05_Driver/tpm/tpm.c:42
    {
        clk_div++;
        clk_f=clk_f/2;
    }
    //4. 写TPM_i的状态和控制寄存器
    TPM_ARR[TPM_i]->SC |= TPM_SC_TOIE_MASK|TPM_SC_CMOD(1)| \
    2c94:	1c3b      	adds	r3, r7, #0
    2c96:	330e      	adds	r3, #14
    2c98:	881a      	ldrh	r2, [r3, #0]
    2c9a:	4b1c      	ldr	r3, [pc, #112]	; (2d0c <tpm_timer_init+0xec>)
    2c9c:	0092      	lsls	r2, r2, #2
    2c9e:	58d3      	ldr	r3, [r2, r3]
    2ca0:	1c3a      	adds	r2, r7, #0
    2ca2:	320e      	adds	r2, #14
    2ca4:	8811      	ldrh	r1, [r2, #0]
    2ca6:	4a19      	ldr	r2, [pc, #100]	; (2d0c <tpm_timer_init+0xec>)
    2ca8:	0089      	lsls	r1, r1, #2
    2caa:	588a      	ldr	r2, [r1, r2]
    2cac:	6811      	ldr	r1, [r2, #0]
E:\BOBO_KDS\KL25_DS18_GPRS\Debug/../05_Driver/tpm/tpm.c:43
                          TPM_SC_PS(clk_div);
    2cae:	6938      	ldr	r0, [r7, #16]
    2cb0:	2207      	movs	r2, #7
    2cb2:	4002      	ands	r2, r0
E:\BOBO_KDS\KL25_DS18_GPRS\Debug/../05_Driver/tpm/tpm.c:42
    {
        clk_div++;
        clk_f=clk_f/2;
    }
    //4. 写TPM_i的状态和控制寄存器
    TPM_ARR[TPM_i]->SC |= TPM_SC_TOIE_MASK|TPM_SC_CMOD(1)| \
    2cb4:	430a      	orrs	r2, r1
    2cb6:	2148      	movs	r1, #72	; 0x48
    2cb8:	430a      	orrs	r2, r1
    2cba:	601a      	str	r2, [r3, #0]
E:\BOBO_KDS\KL25_DS18_GPRS\Debug/../05_Driver/tpm/tpm.c:45
                          TPM_SC_PS(clk_div);
    //5. 计数器清零
    TPM_ARR[TPM_i]->CNT = 0;
    2cbc:	1c3b      	adds	r3, r7, #0
    2cbe:	330e      	adds	r3, #14
    2cc0:	881a      	ldrh	r2, [r3, #0]
    2cc2:	4b12      	ldr	r3, [pc, #72]	; (2d0c <tpm_timer_init+0xec>)
    2cc4:	0092      	lsls	r2, r2, #2
    2cc6:	58d3      	ldr	r3, [r2, r3]
    2cc8:	2200      	movs	r2, #0
    2cca:	605a      	str	r2, [r3, #4]
E:\BOBO_KDS\KL25_DS18_GPRS\Debug/../05_Driver/tpm/tpm.c:47
    //6. 设置模数寄存器
    TPM_ARR[TPM_i]->MOD = f*MOD_Value;  //给模数寄存器赋值
    2ccc:	1c3b      	adds	r3, r7, #0
    2cce:	330e      	adds	r3, #14
    2cd0:	881a      	ldrh	r2, [r3, #0]
    2cd2:	4b0e      	ldr	r3, [pc, #56]	; (2d0c <tpm_timer_init+0xec>)
    2cd4:	0092      	lsls	r2, r2, #2
    2cd6:	58d4      	ldr	r4, [r2, r3]
    2cd8:	68b8      	ldr	r0, [r7, #8]
    2cda:	f7fe f9d7 	bl	108c <__aeabi_ui2f>
    2cde:	1c03      	adds	r3, r0, #0
    2ce0:	1c18      	adds	r0, r3, #0
    2ce2:	6879      	ldr	r1, [r7, #4]
    2ce4:	f7fd ff12 	bl	b0c <__aeabi_fmul>
    2ce8:	1c03      	adds	r3, r0, #0
    2cea:	1c18      	adds	r0, r3, #0
    2cec:	f7fd fe38 	bl	960 <__aeabi_f2uiz>
    2cf0:	1c03      	adds	r3, r0, #0
    2cf2:	60a3      	str	r3, [r4, #8]
E:\BOBO_KDS\KL25_DS18_GPRS\Debug/../05_Driver/tpm/tpm.c:48
}
    2cf4:	46bd      	mov	sp, r7
    2cf6:	b007      	add	sp, #28
    2cf8:	bd90      	pop	{r4, r7, pc}
    2cfa:	46c0      	nop			; (mov r8, r8)
    2cfc:	40047000 	.word	0x40047000
    2d00:	0000103c 	.word	0x0000103c
    2d04:	00001004 	.word	0x00001004
    2d08:	0000bb80 	.word	0x0000bb80
    2d0c:	1ffff008 	.word	0x1ffff008

00002d10 <tpm_enable_int>:
tpm_enable_int():
E:\BOBO_KDS\KL25_DS18_GPRS\Debug/../05_Driver/tpm/tpm.c:217
//功能概要：使能tpm模块中断。
//参数说明：TPM_i：模块号，使用宏定义：TPM_0、TPM_1、TPM_2
//函数返回：无
//===================================================================
void tpm_enable_int(uint_8 TPM_i)
{
    2d10:	b580      	push	{r7, lr}
    2d12:	b082      	sub	sp, #8
    2d14:	af00      	add	r7, sp, #0
    2d16:	1c02      	adds	r2, r0, #0
    2d18:	1dfb      	adds	r3, r7, #7
    2d1a:	701a      	strb	r2, [r3, #0]
E:\BOBO_KDS\KL25_DS18_GPRS\Debug/../05_Driver/tpm/tpm.c:218
    if(TPM_i>2)  TPM_i = 2;
    2d1c:	1dfb      	adds	r3, r7, #7
    2d1e:	781b      	ldrb	r3, [r3, #0]
    2d20:	2b02      	cmp	r3, #2
    2d22:	d902      	bls.n	2d2a <tpm_enable_int+0x1a>
E:\BOBO_KDS\KL25_DS18_GPRS\Debug/../05_Driver/tpm/tpm.c:218 (discriminator 1)
    2d24:	1dfb      	adds	r3, r7, #7
    2d26:	2202      	movs	r2, #2
    2d28:	701a      	strb	r2, [r3, #0]
E:\BOBO_KDS\KL25_DS18_GPRS\Debug/../05_Driver/tpm/tpm.c:220
    //开TPM中断
    NVIC_EnableIRQ(TPM_IRQ[TPM_i]);
    2d2a:	1dfb      	adds	r3, r7, #7
    2d2c:	781b      	ldrb	r3, [r3, #0]
    2d2e:	4a04      	ldr	r2, [pc, #16]	; (2d40 <tpm_enable_int+0x30>)
    2d30:	5cd3      	ldrb	r3, [r2, r3]
    2d32:	b25b      	sxtb	r3, r3
    2d34:	1c18      	adds	r0, r3, #0
    2d36:	f7ff ff5d 	bl	2bf4 <NVIC_EnableIRQ>
E:\BOBO_KDS\KL25_DS18_GPRS\Debug/../05_Driver/tpm/tpm.c:221
}
    2d3a:	46bd      	mov	sp, r7
    2d3c:	b002      	add	sp, #8
    2d3e:	bd80      	pop	{r7, pc}
    2d40:	1ffff014 	.word	0x1ffff014

00002d44 <tpm_get_int>:
tpm_get_int():
E:\BOBO_KDS\KL25_DS18_GPRS\Debug/../05_Driver/tpm/tpm.c:243
//功能概要：获取TPM模块中断标志
//参数说明：TPM_i：模块号，使用宏定义：TPM_0、TPM_1、TPM_2
//函数返回：中断标志 1=有中断产生;0=无中断产生
//===================================================================
uint_8 tpm_get_int(uint_8 TPM_i)
{
    2d44:	b580      	push	{r7, lr}
    2d46:	b082      	sub	sp, #8
    2d48:	af00      	add	r7, sp, #0
    2d4a:	1c02      	adds	r2, r0, #0
    2d4c:	1dfb      	adds	r3, r7, #7
    2d4e:	701a      	strb	r2, [r3, #0]
E:\BOBO_KDS\KL25_DS18_GPRS\Debug/../05_Driver/tpm/tpm.c:245
  //获取TPM_i模块中断标志位
  if(((TPM_SC_REG(TPM_ARR[TPM_i]) & TPM_SC_TOF_MASK)==TPM_SC_TOF_MASK))
    2d50:	1dfb      	adds	r3, r7, #7
    2d52:	781a      	ldrb	r2, [r3, #0]
    2d54:	4b06      	ldr	r3, [pc, #24]	; (2d70 <tpm_get_int+0x2c>)
    2d56:	0092      	lsls	r2, r2, #2
    2d58:	58d3      	ldr	r3, [r2, r3]
    2d5a:	681a      	ldr	r2, [r3, #0]
    2d5c:	2380      	movs	r3, #128	; 0x80
    2d5e:	4013      	ands	r3, r2
    2d60:	d001      	beq.n	2d66 <tpm_get_int+0x22>
E:\BOBO_KDS\KL25_DS18_GPRS\Debug/../05_Driver/tpm/tpm.c:246
    return 1;
    2d62:	2301      	movs	r3, #1
    2d64:	e000      	b.n	2d68 <tpm_get_int+0x24>
E:\BOBO_KDS\KL25_DS18_GPRS\Debug/../05_Driver/tpm/tpm.c:248
  else
    return 0;
    2d66:	2300      	movs	r3, #0
E:\BOBO_KDS\KL25_DS18_GPRS\Debug/../05_Driver/tpm/tpm.c:249
}
    2d68:	1c18      	adds	r0, r3, #0
    2d6a:	46bd      	mov	sp, r7
    2d6c:	b002      	add	sp, #8
    2d6e:	bd80      	pop	{r7, pc}
    2d70:	1ffff008 	.word	0x1ffff008

00002d74 <tpm_clear_int>:
tpm_clear_int():
E:\BOBO_KDS\KL25_DS18_GPRS\Debug/../05_Driver/tpm/tpm.c:274
//功能概要：清除TPM中断标志
//参数说明：TPM_i：模块号，使用宏定义：TPM_0、TPM_1、TPM_2
//函数返回：清除中断标志位
//===================================================================
void tpm_clear_int(uint_8 TPM_i)
{
    2d74:	b580      	push	{r7, lr}
    2d76:	b082      	sub	sp, #8
    2d78:	af00      	add	r7, sp, #0
    2d7a:	1c02      	adds	r2, r0, #0
    2d7c:	1dfb      	adds	r3, r7, #7
    2d7e:	701a      	strb	r2, [r3, #0]
E:\BOBO_KDS\KL25_DS18_GPRS\Debug/../05_Driver/tpm/tpm.c:276
    //清除TPM_i模块中断标志位
    BSET(TPM_SC_TOF_SHIFT,TPM_SC_REG(TPM_ARR[TPM_i]));
    2d80:	1dfb      	adds	r3, r7, #7
    2d82:	781a      	ldrb	r2, [r3, #0]
    2d84:	4b07      	ldr	r3, [pc, #28]	; (2da4 <tpm_clear_int+0x30>)
    2d86:	0092      	lsls	r2, r2, #2
    2d88:	58d3      	ldr	r3, [r2, r3]
    2d8a:	1dfa      	adds	r2, r7, #7
    2d8c:	7811      	ldrb	r1, [r2, #0]
    2d8e:	4a05      	ldr	r2, [pc, #20]	; (2da4 <tpm_clear_int+0x30>)
    2d90:	0089      	lsls	r1, r1, #2
    2d92:	588a      	ldr	r2, [r1, r2]
    2d94:	6812      	ldr	r2, [r2, #0]
    2d96:	2180      	movs	r1, #128	; 0x80
    2d98:	430a      	orrs	r2, r1
    2d9a:	601a      	str	r2, [r3, #0]
E:\BOBO_KDS\KL25_DS18_GPRS\Debug/../05_Driver/tpm/tpm.c:277
}
    2d9c:	46bd      	mov	sp, r7
    2d9e:	b002      	add	sp, #8
    2da0:	bd80      	pop	{r7, pc}
    2da2:	46c0      	nop			; (mov r8, r8)
    2da4:	1ffff008 	.word	0x1ffff008

00002da8 <gpio_init>:
gpio_init():
E:\BOBO_KDS\KL25_DS18_GPRS\Debug/../05_Driver/gpio/gpio.c:27
//          state：端口引脚初始状态（0=低电平，1=高电平）
//功能概要：初始化指定端口引脚作为GPIO引脚功能，并定义为输入或输出，若是输出，
//          还指定初始状态是低电平或高电平
//=====================================================================
void gpio_init(uint_16 port_pin, uint_8 dir, uint_8 state)
{
    2da8:	b580      	push	{r7, lr}
    2daa:	b086      	sub	sp, #24
    2dac:	af00      	add	r7, sp, #0
    2dae:	1dbb      	adds	r3, r7, #6
    2db0:	8018      	strh	r0, [r3, #0]
    2db2:	1d7b      	adds	r3, r7, #5
    2db4:	7019      	strb	r1, [r3, #0]
    2db6:	1d3b      	adds	r3, r7, #4
    2db8:	701a      	strb	r2, [r3, #0]
E:\BOBO_KDS\KL25_DS18_GPRS\Debug/../05_Driver/gpio/gpio.c:33
    //局部变量声明
    PORT_MemMapPtr port_ptr;    //声明port_ptr为PORT结构体类型指针 
    GPIO_MemMapPtr gpio_ptr;    //声明port_ptr为GPIO结构体类型指针
    uint_8 port,pin;            //声明端口port、引脚pin变量
    //根据带入参数port_pin，解析出端口与引脚分别赋给port,pin
    gpio_get_port_pin(port_pin , &port , &pin);
    2dba:	1dbb      	adds	r3, r7, #6
    2dbc:	8819      	ldrh	r1, [r3, #0]
    2dbe:	1c3a      	adds	r2, r7, #0
    2dc0:	320f      	adds	r2, #15
    2dc2:	1c3b      	adds	r3, r7, #0
    2dc4:	330e      	adds	r3, #14
    2dc6:	1c08      	adds	r0, r1, #0
    2dc8:	1c11      	adds	r1, r2, #0
    2dca:	1c1a      	adds	r2, r3, #0
    2dcc:	f000 f958 	bl	3080 <gpio_get_port_pin>
E:\BOBO_KDS\KL25_DS18_GPRS\Debug/../05_Driver/gpio/gpio.c:35
    //根据port，给局部变量port_ptr、gpio_ptr赋值（获得两个基地址）
    port_ptr = PORT_ARR[port];  //获得PORT模块相应口基地址
    2dd0:	1c3b      	adds	r3, r7, #0
    2dd2:	330f      	adds	r3, #15
    2dd4:	781b      	ldrb	r3, [r3, #0]
    2dd6:	1c1a      	adds	r2, r3, #0
    2dd8:	4b2a      	ldr	r3, [pc, #168]	; (2e84 <gpio_init+0xdc>)
    2dda:	0092      	lsls	r2, r2, #2
    2ddc:	58d3      	ldr	r3, [r2, r3]
    2dde:	617b      	str	r3, [r7, #20]
E:\BOBO_KDS\KL25_DS18_GPRS\Debug/../05_Driver/gpio/gpio.c:36
    gpio_ptr = GPIO_ARR[port];  //获得GPIO模块相应口基地址
    2de0:	1c3b      	adds	r3, r7, #0
    2de2:	330f      	adds	r3, #15
    2de4:	781b      	ldrb	r3, [r3, #0]
    2de6:	1c1a      	adds	r2, r3, #0
    2de8:	4b27      	ldr	r3, [pc, #156]	; (2e88 <gpio_init+0xe0>)
    2dea:	0092      	lsls	r2, r2, #2
    2dec:	58d3      	ldr	r3, [r2, r3]
    2dee:	613b      	str	r3, [r7, #16]
E:\BOBO_KDS\KL25_DS18_GPRS\Debug/../05_Driver/gpio/gpio.c:39

    //设定相应端口的相应引脚功能为GPIO（即令引脚控制寄存器的MUX=0b001）
    PORT_PCR_REG(port_ptr, pin) &= ~PORT_PCR_MUX_MASK; //置D10-D8=000
    2df0:	1c3b      	adds	r3, r7, #0
    2df2:	330e      	adds	r3, #14
    2df4:	781b      	ldrb	r3, [r3, #0]
    2df6:	1c1a      	adds	r2, r3, #0
    2df8:	1c3b      	adds	r3, r7, #0
    2dfa:	330e      	adds	r3, #14
    2dfc:	781b      	ldrb	r3, [r3, #0]
    2dfe:	1c19      	adds	r1, r3, #0
    2e00:	697b      	ldr	r3, [r7, #20]
    2e02:	0089      	lsls	r1, r1, #2
    2e04:	58c9      	ldr	r1, [r1, r3]
    2e06:	4b21      	ldr	r3, [pc, #132]	; (2e8c <gpio_init+0xe4>)
    2e08:	4019      	ands	r1, r3
    2e0a:	697b      	ldr	r3, [r7, #20]
    2e0c:	0092      	lsls	r2, r2, #2
    2e0e:	50d1      	str	r1, [r2, r3]
E:\BOBO_KDS\KL25_DS18_GPRS\Debug/../05_Driver/gpio/gpio.c:40
    PORT_PCR_REG(port_ptr, pin) |= PORT_PCR_MUX(1);    //置D10-D8=001
    2e10:	1c3b      	adds	r3, r7, #0
    2e12:	330e      	adds	r3, #14
    2e14:	781b      	ldrb	r3, [r3, #0]
    2e16:	1c1a      	adds	r2, r3, #0
    2e18:	1c3b      	adds	r3, r7, #0
    2e1a:	330e      	adds	r3, #14
    2e1c:	781b      	ldrb	r3, [r3, #0]
    2e1e:	1c19      	adds	r1, r3, #0
    2e20:	697b      	ldr	r3, [r7, #20]
    2e22:	0089      	lsls	r1, r1, #2
    2e24:	58cb      	ldr	r3, [r1, r3]
    2e26:	2180      	movs	r1, #128	; 0x80
    2e28:	0049      	lsls	r1, r1, #1
    2e2a:	4319      	orrs	r1, r3
    2e2c:	697b      	ldr	r3, [r7, #20]
    2e2e:	0092      	lsls	r2, r2, #2
    2e30:	50d1      	str	r1, [r2, r3]
E:\BOBO_KDS\KL25_DS18_GPRS\Debug/../05_Driver/gpio/gpio.c:43

    //根据带入参数dir，决定引脚为输出还是输入
    if (1 == dir)   //希望为输出
    2e32:	1d7b      	adds	r3, r7, #5
    2e34:	781b      	ldrb	r3, [r3, #0]
    2e36:	2b01      	cmp	r3, #1
    2e38:	d114      	bne.n	2e64 <gpio_init+0xbc>
E:\BOBO_KDS\KL25_DS18_GPRS\Debug/../05_Driver/gpio/gpio.c:45
    {
         BSET(pin,GPIO_PDDR_REG(gpio_ptr));//数据方向寄存器的pin位=1，定义为输出
    2e3a:	693b      	ldr	r3, [r7, #16]
    2e3c:	695a      	ldr	r2, [r3, #20]
    2e3e:	1c3b      	adds	r3, r7, #0
    2e40:	330e      	adds	r3, #14
    2e42:	781b      	ldrb	r3, [r3, #0]
    2e44:	2101      	movs	r1, #1
    2e46:	1c08      	adds	r0, r1, #0
    2e48:	4098      	lsls	r0, r3
    2e4a:	1c03      	adds	r3, r0, #0
    2e4c:	431a      	orrs	r2, r3
    2e4e:	693b      	ldr	r3, [r7, #16]
    2e50:	615a      	str	r2, [r3, #20]
E:\BOBO_KDS\KL25_DS18_GPRS\Debug/../05_Driver/gpio/gpio.c:46
         gpio_set(port_pin, state);  //调用gpio_set函数，设定引脚初始状态
    2e52:	1dbb      	adds	r3, r7, #6
    2e54:	881a      	ldrh	r2, [r3, #0]
    2e56:	1d3b      	adds	r3, r7, #4
    2e58:	781b      	ldrb	r3, [r3, #0]
    2e5a:	1c10      	adds	r0, r2, #0
    2e5c:	1c19      	adds	r1, r3, #0
    2e5e:	f000 f817 	bl	2e90 <gpio_set>
    2e62:	e00c      	b.n	2e7e <gpio_init+0xd6>
E:\BOBO_KDS\KL25_DS18_GPRS\Debug/../05_Driver/gpio/gpio.c:50
    }
    else           //希望为输入
    {
        BCLR(pin,GPIO_PDDR_REG(gpio_ptr));//数据方向寄存器的pin位=0，定义为输入
    2e64:	693b      	ldr	r3, [r7, #16]
    2e66:	695b      	ldr	r3, [r3, #20]
    2e68:	1c3a      	adds	r2, r7, #0
    2e6a:	320e      	adds	r2, #14
    2e6c:	7812      	ldrb	r2, [r2, #0]
    2e6e:	2101      	movs	r1, #1
    2e70:	1c08      	adds	r0, r1, #0
    2e72:	4090      	lsls	r0, r2
    2e74:	1c02      	adds	r2, r0, #0
    2e76:	43d2      	mvns	r2, r2
    2e78:	401a      	ands	r2, r3
    2e7a:	693b      	ldr	r3, [r7, #16]
    2e7c:	615a      	str	r2, [r3, #20]
E:\BOBO_KDS\KL25_DS18_GPRS\Debug/../05_Driver/gpio/gpio.c:52
    }
}
    2e7e:	46bd      	mov	sp, r7
    2e80:	b006      	add	sp, #24
    2e82:	bd80      	pop	{r7, pc}
    2e84:	00003cec 	.word	0x00003cec
    2e88:	00003d00 	.word	0x00003d00
    2e8c:	fffff8ff 	.word	0xfffff8ff

00002e90 <gpio_set>:
gpio_set():
E:\BOBO_KDS\KL25_DS18_GPRS\Debug/../05_Driver/gpio/gpio.c:62
//参数说明：port_pin：端口号|引脚号（如：(PTB_NUM)|(9) 表示为B口9号脚）
//       state：引脚初始状态（0=低电平，1=高电平）
//功能概要：设定引脚状态为低电平或高电平
//=====================================================================
void gpio_set(uint_16 port_pin, uint_8 state)
{
    2e90:	b580      	push	{r7, lr}
    2e92:	b084      	sub	sp, #16
    2e94:	af00      	add	r7, sp, #0
    2e96:	1c0a      	adds	r2, r1, #0
    2e98:	1dbb      	adds	r3, r7, #6
    2e9a:	1c01      	adds	r1, r0, #0
    2e9c:	8019      	strh	r1, [r3, #0]
    2e9e:	1d7b      	adds	r3, r7, #5
    2ea0:	701a      	strb	r2, [r3, #0]
E:\BOBO_KDS\KL25_DS18_GPRS\Debug/../05_Driver/gpio/gpio.c:67
    //局部变量声明
    GPIO_MemMapPtr  gpio_ptr;  //声明port_ptr为GPIO结构体类型指针（首地址）
    uint_8 port,pin;           //声明端口port、引脚pin变量
    //根据带入参数port_pin，解析出端口与引脚分别赋给port,pin
    gpio_get_port_pin(port_pin , &port , &pin);
    2ea2:	1dbb      	adds	r3, r7, #6
    2ea4:	8819      	ldrh	r1, [r3, #0]
    2ea6:	1c3a      	adds	r2, r7, #0
    2ea8:	320b      	adds	r2, #11
    2eaa:	1c3b      	adds	r3, r7, #0
    2eac:	330a      	adds	r3, #10
    2eae:	1c08      	adds	r0, r1, #0
    2eb0:	1c11      	adds	r1, r2, #0
    2eb2:	1c1a      	adds	r2, r3, #0
    2eb4:	f000 f8e4 	bl	3080 <gpio_get_port_pin>
E:\BOBO_KDS\KL25_DS18_GPRS\Debug/../05_Driver/gpio/gpio.c:70

    //根据port，给局部变量gpio_ptr赋值（GPIO基地址）
    gpio_ptr = GPIO_ARR[port]; 
    2eb8:	1c3b      	adds	r3, r7, #0
    2eba:	330b      	adds	r3, #11
    2ebc:	781b      	ldrb	r3, [r3, #0]
    2ebe:	1c1a      	adds	r2, r3, #0
    2ec0:	4b12      	ldr	r3, [pc, #72]	; (2f0c <gpio_set+0x7c>)
    2ec2:	0092      	lsls	r2, r2, #2
    2ec4:	58d3      	ldr	r3, [r2, r3]
    2ec6:	60fb      	str	r3, [r7, #12]
E:\BOBO_KDS\KL25_DS18_GPRS\Debug/../05_Driver/gpio/gpio.c:73

    //根据带入参数state，决定引脚为输出1还是0
    if (1==state)
    2ec8:	1d7b      	adds	r3, r7, #5
    2eca:	781b      	ldrb	r3, [r3, #0]
    2ecc:	2b01      	cmp	r3, #1
    2ece:	d10c      	bne.n	2eea <gpio_set+0x5a>
E:\BOBO_KDS\KL25_DS18_GPRS\Debug/../05_Driver/gpio/gpio.c:75
    {
        BSET(pin,GPIO_PDOR_REG(gpio_ptr));
    2ed0:	68fb      	ldr	r3, [r7, #12]
    2ed2:	681a      	ldr	r2, [r3, #0]
    2ed4:	1c3b      	adds	r3, r7, #0
    2ed6:	330a      	adds	r3, #10
    2ed8:	781b      	ldrb	r3, [r3, #0]
    2eda:	2101      	movs	r1, #1
    2edc:	1c08      	adds	r0, r1, #0
    2ede:	4098      	lsls	r0, r3
    2ee0:	1c03      	adds	r3, r0, #0
    2ee2:	431a      	orrs	r2, r3
    2ee4:	68fb      	ldr	r3, [r7, #12]
    2ee6:	601a      	str	r2, [r3, #0]
    2ee8:	e00c      	b.n	2f04 <gpio_set+0x74>
E:\BOBO_KDS\KL25_DS18_GPRS\Debug/../05_Driver/gpio/gpio.c:79
    }
    else
    {
        BCLR(pin,GPIO_PDOR_REG(gpio_ptr));
    2eea:	68fb      	ldr	r3, [r7, #12]
    2eec:	681b      	ldr	r3, [r3, #0]
    2eee:	1c3a      	adds	r2, r7, #0
    2ef0:	320a      	adds	r2, #10
    2ef2:	7812      	ldrb	r2, [r2, #0]
    2ef4:	2101      	movs	r1, #1
    2ef6:	1c08      	adds	r0, r1, #0
    2ef8:	4090      	lsls	r0, r2
    2efa:	1c02      	adds	r2, r0, #0
    2efc:	43d2      	mvns	r2, r2
    2efe:	401a      	ands	r2, r3
    2f00:	68fb      	ldr	r3, [r7, #12]
    2f02:	601a      	str	r2, [r3, #0]
E:\BOBO_KDS\KL25_DS18_GPRS\Debug/../05_Driver/gpio/gpio.c:81
    }
}
    2f04:	46bd      	mov	sp, r7
    2f06:	b004      	add	sp, #16
    2f08:	bd80      	pop	{r7, pc}
    2f0a:	46c0      	nop			; (mov r8, r8)
    2f0c:	00003d00 	.word	0x00003d00

00002f10 <gpio_reverse>:
gpio_reverse():
E:\BOBO_KDS\KL25_DS18_GPRS\Debug/../05_Driver/gpio/gpio.c:111
//函数返回：无
//参数说明：port_pin：端口号|引脚号（如：(PTB_NUM)|(9) 表示为B口9号脚）
//功能概要：反转指定引脚输出状态。
//=====================================================================
void gpio_reverse(uint_16 port_pin)
{
    2f10:	b580      	push	{r7, lr}
    2f12:	b084      	sub	sp, #16
    2f14:	af00      	add	r7, sp, #0
    2f16:	1c02      	adds	r2, r0, #0
    2f18:	1dbb      	adds	r3, r7, #6
    2f1a:	801a      	strh	r2, [r3, #0]
E:\BOBO_KDS\KL25_DS18_GPRS\Debug/../05_Driver/gpio/gpio.c:116
    //局部变量声明
    GPIO_MemMapPtr  gpio_ptr;  //声明port_ptr为GPIO结构体类型指针（首地址）
    uint_8 port,pin;           //声明端口port、引脚pin变量
    //根据带入参数port_pin，解析出端口与引脚分别赋给port,pin
    gpio_get_port_pin(port_pin , &port , &pin);
    2f1c:	1dbb      	adds	r3, r7, #6
    2f1e:	8819      	ldrh	r1, [r3, #0]
    2f20:	1c3a      	adds	r2, r7, #0
    2f22:	320b      	adds	r2, #11
    2f24:	1c3b      	adds	r3, r7, #0
    2f26:	330a      	adds	r3, #10
    2f28:	1c08      	adds	r0, r1, #0
    2f2a:	1c11      	adds	r1, r2, #0
    2f2c:	1c1a      	adds	r2, r3, #0
    2f2e:	f000 f8a7 	bl	3080 <gpio_get_port_pin>
E:\BOBO_KDS\KL25_DS18_GPRS\Debug/../05_Driver/gpio/gpio.c:119

    //根据port，给局部变量gpio_ptr赋值（GPIO基地址）
    gpio_ptr = GPIO_ARR[port]; 
    2f32:	1c3b      	adds	r3, r7, #0
    2f34:	330b      	adds	r3, #11
    2f36:	781b      	ldrb	r3, [r3, #0]
    2f38:	1c1a      	adds	r2, r3, #0
    2f3a:	4b09      	ldr	r3, [pc, #36]	; (2f60 <gpio_reverse+0x50>)
    2f3c:	0092      	lsls	r2, r2, #2
    2f3e:	58d3      	ldr	r3, [r2, r3]
    2f40:	60fb      	str	r3, [r7, #12]
E:\BOBO_KDS\KL25_DS18_GPRS\Debug/../05_Driver/gpio/gpio.c:122

    //反转指定引脚输出状态
    BSET(pin,GPIO_PTOR_REG(gpio_ptr));
    2f42:	68fb      	ldr	r3, [r7, #12]
    2f44:	68da      	ldr	r2, [r3, #12]
    2f46:	1c3b      	adds	r3, r7, #0
    2f48:	330a      	adds	r3, #10
    2f4a:	781b      	ldrb	r3, [r3, #0]
    2f4c:	2101      	movs	r1, #1
    2f4e:	1c08      	adds	r0, r1, #0
    2f50:	4098      	lsls	r0, r3
    2f52:	1c03      	adds	r3, r0, #0
    2f54:	431a      	orrs	r2, r3
    2f56:	68fb      	ldr	r3, [r7, #12]
    2f58:	60da      	str	r2, [r3, #12]
E:\BOBO_KDS\KL25_DS18_GPRS\Debug/../05_Driver/gpio/gpio.c:123
}
    2f5a:	46bd      	mov	sp, r7
    2f5c:	b004      	add	sp, #16
    2f5e:	bd80      	pop	{r7, pc}
    2f60:	00003d00 	.word	0x00003d00

00002f64 <gpio_pull>:
gpio_pull():
E:\BOBO_KDS\KL25_DS18_GPRS\Debug/../05_Driver/gpio/gpio.c:133
//参数说明：port_pin：端口号|引脚号（如：(PTB_NUM)|(9) 表示为B口9号脚）
//        pullselect：引脚拉高低电平（ 0=拉低电平，1=拉高电平）
//功能概要：使指定引脚上拉高电平或下拉低电平
//=====================================================================
void gpio_pull(uint_16 port_pin, uint_8 pullselect)
{
    2f64:	b580      	push	{r7, lr}
    2f66:	b084      	sub	sp, #16
    2f68:	af00      	add	r7, sp, #0
    2f6a:	1c0a      	adds	r2, r1, #0
    2f6c:	1dbb      	adds	r3, r7, #6
    2f6e:	1c01      	adds	r1, r0, #0
    2f70:	8019      	strh	r1, [r3, #0]
    2f72:	1d7b      	adds	r3, r7, #5
    2f74:	701a      	strb	r2, [r3, #0]
E:\BOBO_KDS\KL25_DS18_GPRS\Debug/../05_Driver/gpio/gpio.c:138
    //局部变量声明
    PORT_MemMapPtr port_ptr;   //声明port_ptr为PORT结构体类型指针
    uint_8 port,pin;           //声明端口port、引脚pin变量
    //根据带入参数port_pin，解析出端口与引脚分别赋给port,pin
    gpio_get_port_pin(port_pin , &port , &pin);
    2f76:	1dbb      	adds	r3, r7, #6
    2f78:	8819      	ldrh	r1, [r3, #0]
    2f7a:	1c3a      	adds	r2, r7, #0
    2f7c:	320b      	adds	r2, #11
    2f7e:	1c3b      	adds	r3, r7, #0
    2f80:	330a      	adds	r3, #10
    2f82:	1c08      	adds	r0, r1, #0
    2f84:	1c11      	adds	r1, r2, #0
    2f86:	1c1a      	adds	r2, r3, #0
    2f88:	f000 f87a 	bl	3080 <gpio_get_port_pin>
E:\BOBO_KDS\KL25_DS18_GPRS\Debug/../05_Driver/gpio/gpio.c:141

    //根据port，给局部变量port_ptr赋值（获得基地址）
    port_ptr = PORT_ARR[port];  //获得PORT模块相应口基地址
    2f8c:	1c3b      	adds	r3, r7, #0
    2f8e:	330b      	adds	r3, #11
    2f90:	781b      	ldrb	r3, [r3, #0]
    2f92:	1c1a      	adds	r2, r3, #0
    2f94:	4b38      	ldr	r3, [pc, #224]	; (3078 <gpio_pull+0x114>)
    2f96:	0092      	lsls	r2, r2, #2
    2f98:	58d3      	ldr	r3, [r2, r3]
    2f9a:	60fb      	str	r3, [r7, #12]
E:\BOBO_KDS\KL25_DS18_GPRS\Debug/../05_Driver/gpio/gpio.c:144

    //设定相应端口的相应引脚功能为GPIO（即令引脚控制寄存器的MUX=0b001）
    PORT_PCR_REG(port_ptr, pin) &= ~PORT_PCR_MUX_MASK; //置D10-D8=000
    2f9c:	1c3b      	adds	r3, r7, #0
    2f9e:	330a      	adds	r3, #10
    2fa0:	781b      	ldrb	r3, [r3, #0]
    2fa2:	1c1a      	adds	r2, r3, #0
    2fa4:	1c3b      	adds	r3, r7, #0
    2fa6:	330a      	adds	r3, #10
    2fa8:	781b      	ldrb	r3, [r3, #0]
    2faa:	1c19      	adds	r1, r3, #0
    2fac:	68fb      	ldr	r3, [r7, #12]
    2fae:	0089      	lsls	r1, r1, #2
    2fb0:	58c9      	ldr	r1, [r1, r3]
    2fb2:	4b32      	ldr	r3, [pc, #200]	; (307c <gpio_pull+0x118>)
    2fb4:	4019      	ands	r1, r3
    2fb6:	68fb      	ldr	r3, [r7, #12]
    2fb8:	0092      	lsls	r2, r2, #2
    2fba:	50d1      	str	r1, [r2, r3]
E:\BOBO_KDS\KL25_DS18_GPRS\Debug/../05_Driver/gpio/gpio.c:145
    PORT_PCR_REG(port_ptr, pin) |= PORT_PCR_MUX(1);    //置D10-D8=001
    2fbc:	1c3b      	adds	r3, r7, #0
    2fbe:	330a      	adds	r3, #10
    2fc0:	781b      	ldrb	r3, [r3, #0]
    2fc2:	1c1a      	adds	r2, r3, #0
    2fc4:	1c3b      	adds	r3, r7, #0
    2fc6:	330a      	adds	r3, #10
    2fc8:	781b      	ldrb	r3, [r3, #0]
    2fca:	1c19      	adds	r1, r3, #0
    2fcc:	68fb      	ldr	r3, [r7, #12]
    2fce:	0089      	lsls	r1, r1, #2
    2fd0:	58cb      	ldr	r3, [r1, r3]
    2fd2:	2180      	movs	r1, #128	; 0x80
    2fd4:	0049      	lsls	r1, r1, #1
    2fd6:	4319      	orrs	r1, r3
    2fd8:	68fb      	ldr	r3, [r7, #12]
    2fda:	0092      	lsls	r2, r2, #2
    2fdc:	50d1      	str	r1, [r2, r3]
E:\BOBO_KDS\KL25_DS18_GPRS\Debug/../05_Driver/gpio/gpio.c:148

    //设定正常驱动能力（低驱动能力）（5mA）
    BCLR(PORT_PCR_DSE_SHIFT,PORT_PCR_REG(port_ptr, pin));
    2fde:	1c3b      	adds	r3, r7, #0
    2fe0:	330a      	adds	r3, #10
    2fe2:	781b      	ldrb	r3, [r3, #0]
    2fe4:	1c1a      	adds	r2, r3, #0
    2fe6:	1c3b      	adds	r3, r7, #0
    2fe8:	330a      	adds	r3, #10
    2fea:	781b      	ldrb	r3, [r3, #0]
    2fec:	1c19      	adds	r1, r3, #0
    2fee:	68fb      	ldr	r3, [r7, #12]
    2ff0:	0089      	lsls	r1, r1, #2
    2ff2:	58cb      	ldr	r3, [r1, r3]
    2ff4:	2140      	movs	r1, #64	; 0x40
    2ff6:	1c18      	adds	r0, r3, #0
    2ff8:	4388      	bics	r0, r1
    2ffa:	1c01      	adds	r1, r0, #0
    2ffc:	68fb      	ldr	r3, [r7, #12]
    2ffe:	0092      	lsls	r2, r2, #2
    3000:	50d1      	str	r1, [r2, r3]
E:\BOBO_KDS\KL25_DS18_GPRS\Debug/../05_Driver/gpio/gpio.c:150
    //将引脚上下拉使能
    BSET(PORT_PCR_PE_SHIFT,PORT_PCR_REG(port_ptr, pin));
    3002:	1c3b      	adds	r3, r7, #0
    3004:	330a      	adds	r3, #10
    3006:	781b      	ldrb	r3, [r3, #0]
    3008:	1c1a      	adds	r2, r3, #0
    300a:	1c3b      	adds	r3, r7, #0
    300c:	330a      	adds	r3, #10
    300e:	781b      	ldrb	r3, [r3, #0]
    3010:	1c19      	adds	r1, r3, #0
    3012:	68fb      	ldr	r3, [r7, #12]
    3014:	0089      	lsls	r1, r1, #2
    3016:	58cb      	ldr	r3, [r1, r3]
    3018:	2102      	movs	r1, #2
    301a:	4319      	orrs	r1, r3
    301c:	68fb      	ldr	r3, [r7, #12]
    301e:	0092      	lsls	r2, r2, #2
    3020:	50d1      	str	r1, [r2, r3]
E:\BOBO_KDS\KL25_DS18_GPRS\Debug/../05_Driver/gpio/gpio.c:152
    //根据带入参数pullselect，决定引脚拉高还是拉低
    if (1==pullselect) 
    3022:	1d7b      	adds	r3, r7, #5
    3024:	781b      	ldrb	r3, [r3, #0]
    3026:	2b01      	cmp	r3, #1
    3028:	d110      	bne.n	304c <gpio_pull+0xe8>
E:\BOBO_KDS\KL25_DS18_GPRS\Debug/../05_Driver/gpio/gpio.c:154
    {
        BSET(PORT_PCR_PS_SHIFT,PORT_PCR_REG(port_ptr, pin));
    302a:	1c3b      	adds	r3, r7, #0
    302c:	330a      	adds	r3, #10
    302e:	781b      	ldrb	r3, [r3, #0]
    3030:	1c1a      	adds	r2, r3, #0
    3032:	1c3b      	adds	r3, r7, #0
    3034:	330a      	adds	r3, #10
    3036:	781b      	ldrb	r3, [r3, #0]
    3038:	1c19      	adds	r1, r3, #0
    303a:	68fb      	ldr	r3, [r7, #12]
    303c:	0089      	lsls	r1, r1, #2
    303e:	58cb      	ldr	r3, [r1, r3]
    3040:	2101      	movs	r1, #1
    3042:	4319      	orrs	r1, r3
    3044:	68fb      	ldr	r3, [r7, #12]
    3046:	0092      	lsls	r2, r2, #2
    3048:	50d1      	str	r1, [r2, r3]
    304a:	e011      	b.n	3070 <gpio_pull+0x10c>
E:\BOBO_KDS\KL25_DS18_GPRS\Debug/../05_Driver/gpio/gpio.c:158
    }
    else
    {
        BCLR(PORT_PCR_PS_SHIFT,PORT_PCR_REG(port_ptr, pin));
    304c:	1c3b      	adds	r3, r7, #0
    304e:	330a      	adds	r3, #10
    3050:	781b      	ldrb	r3, [r3, #0]
    3052:	1c1a      	adds	r2, r3, #0
    3054:	1c3b      	adds	r3, r7, #0
    3056:	330a      	adds	r3, #10
    3058:	781b      	ldrb	r3, [r3, #0]
    305a:	1c19      	adds	r1, r3, #0
    305c:	68fb      	ldr	r3, [r7, #12]
    305e:	0089      	lsls	r1, r1, #2
    3060:	58cb      	ldr	r3, [r1, r3]
    3062:	2101      	movs	r1, #1
    3064:	1c18      	adds	r0, r3, #0
    3066:	4388      	bics	r0, r1
    3068:	1c01      	adds	r1, r0, #0
    306a:	68fb      	ldr	r3, [r7, #12]
    306c:	0092      	lsls	r2, r2, #2
    306e:	50d1      	str	r1, [r2, r3]
E:\BOBO_KDS\KL25_DS18_GPRS\Debug/../05_Driver/gpio/gpio.c:160
    }
}
    3070:	46bd      	mov	sp, r7
    3072:	b004      	add	sp, #16
    3074:	bd80      	pop	{r7, pc}
    3076:	46c0      	nop			; (mov r8, r8)
    3078:	00003cec 	.word	0x00003cec
    307c:	fffff8ff 	.word	0xfffff8ff

00003080 <gpio_get_port_pin>:
gpio_get_port_pin():
E:\BOBO_KDS\KL25_DS18_GPRS\Debug/../05_Driver/gpio/gpio.c:334
//       pin:引脚号（0~31，实际取值由芯片的物理引脚决定）（传指带出参数）
//功能概要：将传进参数port_pin进行解析，得出具体端口号与引脚号，分别赋值给port与pin,返回。
//       （例：(PTB_NUM)|(9)解析为PORTB与9，并将其分别赋值给port与pin）。
//=====================================================================
void gpio_get_port_pin(uint_16 port_pin,uint_8* port,uint_8* pin)
{
    3080:	b580      	push	{r7, lr}
    3082:	b084      	sub	sp, #16
    3084:	af00      	add	r7, sp, #0
    3086:	60b9      	str	r1, [r7, #8]
    3088:	607a      	str	r2, [r7, #4]
    308a:	1c3b      	adds	r3, r7, #0
    308c:	330e      	adds	r3, #14
    308e:	1c02      	adds	r2, r0, #0
    3090:	801a      	strh	r2, [r3, #0]
E:\BOBO_KDS\KL25_DS18_GPRS\Debug/../05_Driver/gpio/gpio.c:335
    *port = (port_pin>>8);
    3092:	1c3b      	adds	r3, r7, #0
    3094:	330e      	adds	r3, #14
    3096:	881b      	ldrh	r3, [r3, #0]
    3098:	0a1b      	lsrs	r3, r3, #8
    309a:	b29b      	uxth	r3, r3
    309c:	b2da      	uxtb	r2, r3
    309e:	68bb      	ldr	r3, [r7, #8]
    30a0:	701a      	strb	r2, [r3, #0]
E:\BOBO_KDS\KL25_DS18_GPRS\Debug/../05_Driver/gpio/gpio.c:336
    *pin = port_pin;
    30a2:	1c3b      	adds	r3, r7, #0
    30a4:	330e      	adds	r3, #14
    30a6:	881b      	ldrh	r3, [r3, #0]
    30a8:	b2da      	uxtb	r2, r3
    30aa:	687b      	ldr	r3, [r7, #4]
    30ac:	701a      	strb	r2, [r3, #0]
E:\BOBO_KDS\KL25_DS18_GPRS\Debug/../05_Driver/gpio/gpio.c:337
}
    30ae:	46bd      	mov	sp, r7
    30b0:	b004      	add	sp, #16
    30b2:	bd80      	pop	{r7, pc}

000030b4 <SystemInit>:
SystemInit():
E:\BOBO_KDS\KL25_DS18_GPRS\Debug/../03_MCU/system_MKL25Z4.c:111
//函数名称：SystemInit
//功能概要：初始化系统的时钟，并把PORT时钟门启用
//参数说明：无
//函数返回：无
//======================================================================
void SystemInit (void) {
    30b4:	b580      	push	{r7, lr}
    30b6:	b082      	sub	sp, #8
    30b8:	af00      	add	r7, sp, #0
E:\BOBO_KDS\KL25_DS18_GPRS\Debug/../03_MCU/system_MKL25Z4.c:113

	unsigned int i = 0;
    30ba:	2300      	movs	r3, #0
    30bc:	607b      	str	r3, [r7, #4]
E:\BOBO_KDS\KL25_DS18_GPRS\Debug/../03_MCU/system_MKL25Z4.c:114
	char temp_reg = 0;
    30be:	1cfb      	adds	r3, r7, #3
    30c0:	2200      	movs	r2, #0
    30c2:	701a      	strb	r2, [r3, #0]
E:\BOBO_KDS\KL25_DS18_GPRS\Debug/../03_MCU/system_MKL25Z4.c:117

#if (DISABLE_WDOG)  //关闭看门狗
    SIM->COPC = (uint32_t)0x00u;    //SIM_COPC: COPT=0,COPCLKS=0,COPW=0
    30c4:	4a5b      	ldr	r2, [pc, #364]	; (3234 <SystemInit+0x180>)
    30c6:	2388      	movs	r3, #136	; 0x88
    30c8:	015b      	lsls	r3, r3, #5
    30ca:	2100      	movs	r1, #0
    30cc:	50d1      	str	r1, [r2, r3]
E:\BOBO_KDS\KL25_DS18_GPRS\Debug/../03_MCU/system_MKL25Z4.c:125
//1.首先从FEI模式过渡到FBE模式

    //C2= 0x1C，因为我们的核心板上采用了外部晶振为8Mhz，属于高频率范围，
    //C2[RANGE]设置为0b01；C2[HGO]设为1以配置晶振来进行高增益操作；因为
    //正在使用的外部参考时钟源是晶振，所以C2[EREFS]设置为1。
    MCG_C2 = (MCG_C2_RANGE0(1) | MCG_C2_EREFS0_MASK);
    30ce:	4b5a      	ldr	r3, [pc, #360]	; (3238 <SystemInit+0x184>)
    30d0:	2214      	movs	r2, #20
    30d2:	705a      	strb	r2, [r3, #1]
E:\BOBO_KDS\KL25_DS18_GPRS\Debug/../03_MCU/system_MKL25Z4.c:130
    //C1 = 0x90 ，C1[CLKS]设置为2’b10，以便选择作为系统时钟源的外部参考时钟。
    //C1[FRDIV]设置为3'b011，对应256分频,因为8MHz/256=31.25kHz在由FLL要求的
    //31.25kHz至39.0625 kHz频率范围内。C1[IREFS]清除为0，选择外部参考时钟和
    //外部晶振。
    MCG_C1 = (MCG_C1_CLKS(2) | MCG_C1_FRDIV(3));
    30d4:	4b58      	ldr	r3, [pc, #352]	; (3238 <SystemInit+0x184>)
    30d6:	2298      	movs	r2, #152	; 0x98
    30d8:	701a      	strb	r2, [r3, #0]
E:\BOBO_KDS\KL25_DS18_GPRS\Debug/../03_MCU/system_MKL25Z4.c:132
    //需要等到S[OSCINIT]被置位外部晶振才能使用
    for (i = 0 ; i < 20000 ; i++)
    30da:	2300      	movs	r3, #0
    30dc:	607b      	str	r3, [r7, #4]
    30de:	e00a      	b.n	30f6 <SystemInit+0x42>
E:\BOBO_KDS\KL25_DS18_GPRS\Debug/../03_MCU/system_MKL25Z4.c:135
    {
        //如果S[OSCINIT]在循环结束之前被置位就跳出循环
        if (MCG_S & MCG_S_OSCINIT0_MASK) break;
    30e0:	4b55      	ldr	r3, [pc, #340]	; (3238 <SystemInit+0x184>)
    30e2:	799b      	ldrb	r3, [r3, #6]
    30e4:	b2db      	uxtb	r3, r3
    30e6:	1c1a      	adds	r2, r3, #0
    30e8:	2302      	movs	r3, #2
    30ea:	4013      	ands	r3, r2
    30ec:	d000      	beq.n	30f0 <SystemInit+0x3c>
E:\BOBO_KDS\KL25_DS18_GPRS\Debug/../03_MCU/system_MKL25Z4.c:135 (discriminator 1)
    30ee:	e006      	b.n	30fe <SystemInit+0x4a>
E:\BOBO_KDS\KL25_DS18_GPRS\Debug/../03_MCU/system_MKL25Z4.c:132
    //C1[FRDIV]设置为3'b011，对应256分频,因为8MHz/256=31.25kHz在由FLL要求的
    //31.25kHz至39.0625 kHz频率范围内。C1[IREFS]清除为0，选择外部参考时钟和
    //外部晶振。
    MCG_C1 = (MCG_C1_CLKS(2) | MCG_C1_FRDIV(3));
    //需要等到S[OSCINIT]被置位外部晶振才能使用
    for (i = 0 ; i < 20000 ; i++)
    30f0:	687b      	ldr	r3, [r7, #4]
    30f2:	3301      	adds	r3, #1
    30f4:	607b      	str	r3, [r7, #4]
E:\BOBO_KDS\KL25_DS18_GPRS\Debug/../03_MCU/system_MKL25Z4.c:132 (discriminator 1)
    30f6:	687a      	ldr	r2, [r7, #4]
    30f8:	4b50      	ldr	r3, [pc, #320]	; (323c <SystemInit+0x188>)
    30fa:	429a      	cmp	r2, r3
    30fc:	d9f0      	bls.n	30e0 <SystemInit+0x2c>
E:\BOBO_KDS\KL25_DS18_GPRS\Debug/../03_MCU/system_MKL25Z4.c:138
    {
        //如果S[OSCINIT]在循环结束之前被置位就跳出循环
        if (MCG_S & MCG_S_OSCINIT0_MASK) break;
    }
    //等待参考时钟状态位清0
    for (i = 0 ; i < 2000 ; i++)
    30fe:	2300      	movs	r3, #0
    3100:	607b      	str	r3, [r7, #4]
    3102:	e00a      	b.n	311a <SystemInit+0x66>
E:\BOBO_KDS\KL25_DS18_GPRS\Debug/../03_MCU/system_MKL25Z4.c:141
    {
        //如果IREFST在循环结束之前被清0就跳出循环
        if (!(MCG_S & MCG_S_IREFST_MASK)) break;
    3104:	4b4c      	ldr	r3, [pc, #304]	; (3238 <SystemInit+0x184>)
    3106:	799b      	ldrb	r3, [r3, #6]
    3108:	b2db      	uxtb	r3, r3
    310a:	1c1a      	adds	r2, r3, #0
    310c:	2310      	movs	r3, #16
    310e:	4013      	ands	r3, r2
    3110:	d100      	bne.n	3114 <SystemInit+0x60>
E:\BOBO_KDS\KL25_DS18_GPRS\Debug/../03_MCU/system_MKL25Z4.c:141 (discriminator 1)
    3112:	e006      	b.n	3122 <SystemInit+0x6e>
E:\BOBO_KDS\KL25_DS18_GPRS\Debug/../03_MCU/system_MKL25Z4.c:138
    {
        //如果S[OSCINIT]在循环结束之前被置位就跳出循环
        if (MCG_S & MCG_S_OSCINIT0_MASK) break;
    }
    //等待参考时钟状态位清0
    for (i = 0 ; i < 2000 ; i++)
    3114:	687b      	ldr	r3, [r7, #4]
    3116:	3301      	adds	r3, #1
    3118:	607b      	str	r3, [r7, #4]
E:\BOBO_KDS\KL25_DS18_GPRS\Debug/../03_MCU/system_MKL25Z4.c:138 (discriminator 1)
    311a:	687a      	ldr	r2, [r7, #4]
    311c:	4b48      	ldr	r3, [pc, #288]	; (3240 <SystemInit+0x18c>)
    311e:	429a      	cmp	r2, r3
    3120:	d9f0      	bls.n	3104 <SystemInit+0x50>
E:\BOBO_KDS\KL25_DS18_GPRS\Debug/../03_MCU/system_MKL25Z4.c:144
    {
        //如果IREFST在循环结束之前被清0就跳出循环
        if (!(MCG_S & MCG_S_IREFST_MASK)) break;
    }
    //等待时钟状态位以显示时钟源为外部参考时钟
    for (i = 0 ; i < 2000 ; i++)
    3122:	2300      	movs	r3, #0
    3124:	607b      	str	r3, [r7, #4]
    3126:	e00c      	b.n	3142 <SystemInit+0x8e>
E:\BOBO_KDS\KL25_DS18_GPRS\Debug/../03_MCU/system_MKL25Z4.c:147
    {
        //如果CLKST显示外部时钟被选择，在循环结束之前就跳出循环
        if (((MCG_S & MCG_S_CLKST_MASK) >> MCG_S_CLKST_SHIFT) == 0x2) break;
    3128:	4b43      	ldr	r3, [pc, #268]	; (3238 <SystemInit+0x184>)
    312a:	799b      	ldrb	r3, [r3, #6]
    312c:	b2db      	uxtb	r3, r3
    312e:	1c1a      	adds	r2, r3, #0
    3130:	230c      	movs	r3, #12
    3132:	4013      	ands	r3, r2
    3134:	089b      	lsrs	r3, r3, #2
    3136:	2b02      	cmp	r3, #2
    3138:	d100      	bne.n	313c <SystemInit+0x88>
E:\BOBO_KDS\KL25_DS18_GPRS\Debug/../03_MCU/system_MKL25Z4.c:147 (discriminator 1)
    313a:	e006      	b.n	314a <SystemInit+0x96>
E:\BOBO_KDS\KL25_DS18_GPRS\Debug/../03_MCU/system_MKL25Z4.c:144
    {
        //如果IREFST在循环结束之前被清0就跳出循环
        if (!(MCG_S & MCG_S_IREFST_MASK)) break;
    }
    //等待时钟状态位以显示时钟源为外部参考时钟
    for (i = 0 ; i < 2000 ; i++)
    313c:	687b      	ldr	r3, [r7, #4]
    313e:	3301      	adds	r3, #1
    3140:	607b      	str	r3, [r7, #4]
E:\BOBO_KDS\KL25_DS18_GPRS\Debug/../03_MCU/system_MKL25Z4.c:144 (discriminator 1)
    3142:	687a      	ldr	r2, [r7, #4]
    3144:	4b3e      	ldr	r3, [pc, #248]	; (3240 <SystemInit+0x18c>)
    3146:	429a      	cmp	r2, r3
    3148:	d9ee      	bls.n	3128 <SystemInit+0x74>
E:\BOBO_KDS\KL25_DS18_GPRS\Debug/../03_MCU/system_MKL25Z4.c:151
        //如果CLKST显示外部时钟被选择，在循环结束之前就跳出循环
        if (((MCG_S & MCG_S_CLKST_MASK) >> MCG_S_CLKST_SHIFT) == 0x2) break;
    }

//2.现在处于FBE状态，使能时钟监视器，由FBE直接转换为PBE模式
    MCG_C6 |= MCG_C6_CME0_MASK;
    314a:	4b3b      	ldr	r3, [pc, #236]	; (3238 <SystemInit+0x184>)
    314c:	4a3a      	ldr	r2, [pc, #232]	; (3238 <SystemInit+0x184>)
    314e:	7952      	ldrb	r2, [r2, #5]
    3150:	b2d2      	uxtb	r2, r2
    3152:	2120      	movs	r1, #32
    3154:	430a      	orrs	r2, r1
    3156:	b2d2      	uxtb	r2, r2
    3158:	715a      	strb	r2, [r3, #5]
E:\BOBO_KDS\KL25_DS18_GPRS\Debug/../03_MCU/system_MKL25Z4.c:153
    //配置PLL为2分频
    MCG_C5 |= MCG_C5_PRDIV0(1);
    315a:	4b37      	ldr	r3, [pc, #220]	; (3238 <SystemInit+0x184>)
    315c:	4a36      	ldr	r2, [pc, #216]	; (3238 <SystemInit+0x184>)
    315e:	7912      	ldrb	r2, [r2, #4]
    3160:	b2d2      	uxtb	r2, r2
    3162:	2101      	movs	r1, #1
    3164:	430a      	orrs	r2, r1
    3166:	b2d2      	uxtb	r2, r2
    3168:	711a      	strb	r2, [r3, #4]
E:\BOBO_KDS\KL25_DS18_GPRS\Debug/../03_MCU/system_MKL25Z4.c:155
    //配置MCG_C6 以设置PLL倍频因子并且时能PLL，PLLS位被置位来时能PLL，MCGOUT时钟源仍然是外部参考时钟
    temp_reg = MCG_C6; //存储当前C6的值（因为CME0位之前被置位了）
    316a:	4b33      	ldr	r3, [pc, #204]	; (3238 <SystemInit+0x184>)
    316c:	795b      	ldrb	r3, [r3, #5]
    316e:	b2da      	uxtb	r2, r3
    3170:	1cfb      	adds	r3, r7, #3
    3172:	701a      	strb	r2, [r3, #0]
E:\BOBO_KDS\KL25_DS18_GPRS\Debug/../03_MCU/system_MKL25Z4.c:156
    temp_reg &= ~MCG_C6_VDIV0_MASK; //将VDIV清0
    3174:	1cfb      	adds	r3, r7, #3
    3176:	1cfa      	adds	r2, r7, #3
    3178:	7812      	ldrb	r2, [r2, #0]
    317a:	211f      	movs	r1, #31
    317c:	438a      	bics	r2, r1
    317e:	701a      	strb	r2, [r3, #0]
E:\BOBO_KDS\KL25_DS18_GPRS\Debug/../03_MCU/system_MKL25Z4.c:157
    temp_reg |= MCG_C6_PLLS_MASK | MCG_C6_VDIV0(0); // 重新写值到VDIV 并且时能PLL
    3180:	1cfb      	adds	r3, r7, #3
    3182:	1cfa      	adds	r2, r7, #3
    3184:	7812      	ldrb	r2, [r2, #0]
    3186:	2140      	movs	r1, #64	; 0x40
    3188:	430a      	orrs	r2, r1
    318a:	701a      	strb	r2, [r3, #0]
E:\BOBO_KDS\KL25_DS18_GPRS\Debug/../03_MCU/system_MKL25Z4.c:158
    MCG_C6 = temp_reg; // 更新MCG_C6的值
    318c:	4b2a      	ldr	r3, [pc, #168]	; (3238 <SystemInit+0x184>)
    318e:	1cfa      	adds	r2, r7, #3
    3190:	7812      	ldrb	r2, [r2, #0]
    3192:	715a      	strb	r2, [r3, #5]
E:\BOBO_KDS\KL25_DS18_GPRS\Debug/../03_MCU/system_MKL25Z4.c:160
    // 等待PLLST状态位被置
    for (i = 0 ; i < 2000 ; i++)
    3194:	2300      	movs	r3, #0
    3196:	607b      	str	r3, [r7, #4]
    3198:	e00a      	b.n	31b0 <SystemInit+0xfc>
E:\BOBO_KDS\KL25_DS18_GPRS\Debug/../03_MCU/system_MKL25Z4.c:163
    {
        //如果PLLST在循环结束之前被置位就跳出循环
        if (MCG_S & MCG_S_PLLST_MASK)
    319a:	4b27      	ldr	r3, [pc, #156]	; (3238 <SystemInit+0x184>)
    319c:	799b      	ldrb	r3, [r3, #6]
    319e:	b2db      	uxtb	r3, r3
    31a0:	1c1a      	adds	r2, r3, #0
    31a2:	2320      	movs	r3, #32
    31a4:	4013      	ands	r3, r2
    31a6:	d000      	beq.n	31aa <SystemInit+0xf6>
E:\BOBO_KDS\KL25_DS18_GPRS\Debug/../03_MCU/system_MKL25Z4.c:164
        	break;
    31a8:	e006      	b.n	31b8 <SystemInit+0x104>
E:\BOBO_KDS\KL25_DS18_GPRS\Debug/../03_MCU/system_MKL25Z4.c:160
    temp_reg = MCG_C6; //存储当前C6的值（因为CME0位之前被置位了）
    temp_reg &= ~MCG_C6_VDIV0_MASK; //将VDIV清0
    temp_reg |= MCG_C6_PLLS_MASK | MCG_C6_VDIV0(0); // 重新写值到VDIV 并且时能PLL
    MCG_C6 = temp_reg; // 更新MCG_C6的值
    // 等待PLLST状态位被置
    for (i = 0 ; i < 2000 ; i++)
    31aa:	687b      	ldr	r3, [r7, #4]
    31ac:	3301      	adds	r3, #1
    31ae:	607b      	str	r3, [r7, #4]
E:\BOBO_KDS\KL25_DS18_GPRS\Debug/../03_MCU/system_MKL25Z4.c:160 (discriminator 1)
    31b0:	687a      	ldr	r2, [r7, #4]
    31b2:	4b23      	ldr	r3, [pc, #140]	; (3240 <SystemInit+0x18c>)
    31b4:	429a      	cmp	r2, r3
    31b6:	d9f0      	bls.n	319a <SystemInit+0xe6>
E:\BOBO_KDS\KL25_DS18_GPRS\Debug/../03_MCU/system_MKL25Z4.c:167
        //如果PLLST在循环结束之前被置位就跳出循环
        if (MCG_S & MCG_S_PLLST_MASK)
        	break;
    }
    //等待LOCK位被置
    for (i = 0 ; i < 4000 ; i++)
    31b8:	2300      	movs	r3, #0
    31ba:	607b      	str	r3, [r7, #4]
    31bc:	e00a      	b.n	31d4 <SystemInit+0x120>
E:\BOBO_KDS\KL25_DS18_GPRS\Debug/../03_MCU/system_MKL25Z4.c:170
    {
        //如果LOCK在循环结束之前被置位就跳出循环
        if (MCG_S & MCG_S_LOCK0_MASK)
    31be:	4b1e      	ldr	r3, [pc, #120]	; (3238 <SystemInit+0x184>)
    31c0:	799b      	ldrb	r3, [r3, #6]
    31c2:	b2db      	uxtb	r3, r3
    31c4:	1c1a      	adds	r2, r3, #0
    31c6:	2340      	movs	r3, #64	; 0x40
    31c8:	4013      	ands	r3, r2
    31ca:	d000      	beq.n	31ce <SystemInit+0x11a>
E:\BOBO_KDS\KL25_DS18_GPRS\Debug/../03_MCU/system_MKL25Z4.c:171
        	break;
    31cc:	e006      	b.n	31dc <SystemInit+0x128>
E:\BOBO_KDS\KL25_DS18_GPRS\Debug/../03_MCU/system_MKL25Z4.c:167
        //如果PLLST在循环结束之前被置位就跳出循环
        if (MCG_S & MCG_S_PLLST_MASK)
        	break;
    }
    //等待LOCK位被置
    for (i = 0 ; i < 4000 ; i++)
    31ce:	687b      	ldr	r3, [r7, #4]
    31d0:	3301      	adds	r3, #1
    31d2:	607b      	str	r3, [r7, #4]
E:\BOBO_KDS\KL25_DS18_GPRS\Debug/../03_MCU/system_MKL25Z4.c:167 (discriminator 1)
    31d4:	687a      	ldr	r2, [r7, #4]
    31d6:	4b1b      	ldr	r3, [pc, #108]	; (3244 <SystemInit+0x190>)
    31d8:	429a      	cmp	r2, r3
    31da:	d9f0      	bls.n	31be <SystemInit+0x10a>
E:\BOBO_KDS\KL25_DS18_GPRS\Debug/../03_MCU/system_MKL25Z4.c:177
    }

//3.现在处于PBE模式。最后，PBE模式转换成PEE模式
    // 设置核心时钟分频器2分频
    //设置总线时钟分频器2分频 (总线时钟的时钟源是核心时钟)
    SIM_CLKDIV1 = (SIM_CLKDIV1_OUTDIV1(1) | SIM_CLKDIV1_OUTDIV4(1) );
    31dc:	4a15      	ldr	r2, [pc, #84]	; (3234 <SystemInit+0x180>)
    31de:	4b1a      	ldr	r3, [pc, #104]	; (3248 <SystemInit+0x194>)
    31e0:	491a      	ldr	r1, [pc, #104]	; (324c <SystemInit+0x198>)
    31e2:	50d1      	str	r1, [r2, r3]
E:\BOBO_KDS\KL25_DS18_GPRS\Debug/../03_MCU/system_MKL25Z4.c:179
    //清CLKS来打开CLKS多路复用器来选择PLL作为MCGCLKOUT
    MCG_C1 &= ~MCG_C1_CLKS_MASK;
    31e4:	4b14      	ldr	r3, [pc, #80]	; (3238 <SystemInit+0x184>)
    31e6:	4a14      	ldr	r2, [pc, #80]	; (3238 <SystemInit+0x184>)
    31e8:	7812      	ldrb	r2, [r2, #0]
    31ea:	b2d1      	uxtb	r1, r2
    31ec:	223f      	movs	r2, #63	; 0x3f
    31ee:	400a      	ands	r2, r1
    31f0:	b2d2      	uxtb	r2, r2
    31f2:	701a      	strb	r2, [r3, #0]
E:\BOBO_KDS\KL25_DS18_GPRS\Debug/../03_MCU/system_MKL25Z4.c:181
    // 等待时钟状态位更新
    for (i = 0 ; i < 2000 ; i++)
    31f4:	2300      	movs	r3, #0
    31f6:	607b      	str	r3, [r7, #4]
    31f8:	e00c      	b.n	3214 <SystemInit+0x160>
E:\BOBO_KDS\KL25_DS18_GPRS\Debug/../03_MCU/system_MKL25Z4.c:184
    {
        //如果CLKST在循环结束之前等于3就跳出循环
        if (((MCG_S & MCG_S_CLKST_MASK) >> MCG_S_CLKST_SHIFT) == 0x3) break;
    31fa:	4b0f      	ldr	r3, [pc, #60]	; (3238 <SystemInit+0x184>)
    31fc:	799b      	ldrb	r3, [r3, #6]
    31fe:	b2db      	uxtb	r3, r3
    3200:	1c1a      	adds	r2, r3, #0
    3202:	230c      	movs	r3, #12
    3204:	4013      	ands	r3, r2
    3206:	089b      	lsrs	r3, r3, #2
    3208:	2b03      	cmp	r3, #3
    320a:	d100      	bne.n	320e <SystemInit+0x15a>
E:\BOBO_KDS\KL25_DS18_GPRS\Debug/../03_MCU/system_MKL25Z4.c:184 (discriminator 1)
    320c:	e006      	b.n	321c <SystemInit+0x168>
E:\BOBO_KDS\KL25_DS18_GPRS\Debug/../03_MCU/system_MKL25Z4.c:181
    //设置总线时钟分频器2分频 (总线时钟的时钟源是核心时钟)
    SIM_CLKDIV1 = (SIM_CLKDIV1_OUTDIV1(1) | SIM_CLKDIV1_OUTDIV4(1) );
    //清CLKS来打开CLKS多路复用器来选择PLL作为MCGCLKOUT
    MCG_C1 &= ~MCG_C1_CLKS_MASK;
    // 等待时钟状态位更新
    for (i = 0 ; i < 2000 ; i++)
    320e:	687b      	ldr	r3, [r7, #4]
    3210:	3301      	adds	r3, #1
    3212:	607b      	str	r3, [r7, #4]
E:\BOBO_KDS\KL25_DS18_GPRS\Debug/../03_MCU/system_MKL25Z4.c:181 (discriminator 1)
    3214:	687a      	ldr	r2, [r7, #4]
    3216:	4b0a      	ldr	r3, [pc, #40]	; (3240 <SystemInit+0x18c>)
    3218:	429a      	cmp	r2, r3
    321a:	d9ee      	bls.n	31fa <SystemInit+0x146>
E:\BOBO_KDS\KL25_DS18_GPRS\Debug/../03_MCU/system_MKL25Z4.c:189
        if (((MCG_S & MCG_S_CLKST_MASK) >> MCG_S_CLKST_SHIFT) == 0x3) break;
    }
//4.现在处于PEE模式

    //初始化后，开始PORT模块时钟
    SIM_SCGC5 |= SIM_SCGC5_PORTA_MASK
    321c:	4a05      	ldr	r2, [pc, #20]	; (3234 <SystemInit+0x180>)
    321e:	4905      	ldr	r1, [pc, #20]	; (3234 <SystemInit+0x180>)
    3220:	4b0b      	ldr	r3, [pc, #44]	; (3250 <SystemInit+0x19c>)
    3222:	58cb      	ldr	r3, [r1, r3]
    3224:	21f8      	movs	r1, #248	; 0xf8
    3226:	0189      	lsls	r1, r1, #6
    3228:	4319      	orrs	r1, r3
    322a:	4b09      	ldr	r3, [pc, #36]	; (3250 <SystemInit+0x19c>)
    322c:	50d1      	str	r1, [r2, r3]
E:\BOBO_KDS\KL25_DS18_GPRS\Debug/../03_MCU/system_MKL25Z4.c:194
  			  | SIM_SCGC5_PORTB_MASK
  			  | SIM_SCGC5_PORTC_MASK
  			  | SIM_SCGC5_PORTD_MASK
  			  | SIM_SCGC5_PORTE_MASK;
}
    322e:	46bd      	mov	sp, r7
    3230:	b002      	add	sp, #8
    3232:	bd80      	pop	{r7, pc}
    3234:	40047000 	.word	0x40047000
    3238:	40064000 	.word	0x40064000
    323c:	00004e1f 	.word	0x00004e1f
    3240:	000007cf 	.word	0x000007cf
    3244:	00000f9f 	.word	0x00000f9f
    3248:	00001044 	.word	0x00001044
    324c:	10010000 	.word	0x10010000
    3250:	00001038 	.word	0x00001038

00003254 <memcpy>:
memcpy():
    3254:	b5f0      	push	{r4, r5, r6, r7, lr}
    3256:	2a0f      	cmp	r2, #15
    3258:	d935      	bls.n	32c6 <memcpy+0x72>
    325a:	1c03      	adds	r3, r0, #0
    325c:	430b      	orrs	r3, r1
    325e:	079c      	lsls	r4, r3, #30
    3260:	d135      	bne.n	32ce <memcpy+0x7a>
    3262:	1c16      	adds	r6, r2, #0
    3264:	3e10      	subs	r6, #16
    3266:	0936      	lsrs	r6, r6, #4
    3268:	0135      	lsls	r5, r6, #4
    326a:	1945      	adds	r5, r0, r5
    326c:	3510      	adds	r5, #16
    326e:	1c0c      	adds	r4, r1, #0
    3270:	1c03      	adds	r3, r0, #0
    3272:	6827      	ldr	r7, [r4, #0]
    3274:	601f      	str	r7, [r3, #0]
    3276:	6867      	ldr	r7, [r4, #4]
    3278:	605f      	str	r7, [r3, #4]
    327a:	68a7      	ldr	r7, [r4, #8]
    327c:	609f      	str	r7, [r3, #8]
    327e:	68e7      	ldr	r7, [r4, #12]
    3280:	3410      	adds	r4, #16
    3282:	60df      	str	r7, [r3, #12]
    3284:	3310      	adds	r3, #16
    3286:	42ab      	cmp	r3, r5
    3288:	d1f3      	bne.n	3272 <memcpy+0x1e>
    328a:	1c73      	adds	r3, r6, #1
    328c:	011b      	lsls	r3, r3, #4
    328e:	18c5      	adds	r5, r0, r3
    3290:	18c9      	adds	r1, r1, r3
    3292:	230f      	movs	r3, #15
    3294:	4013      	ands	r3, r2
    3296:	2b03      	cmp	r3, #3
    3298:	d91b      	bls.n	32d2 <memcpy+0x7e>
    329a:	1f1c      	subs	r4, r3, #4
    329c:	08a4      	lsrs	r4, r4, #2
    329e:	3401      	adds	r4, #1
    32a0:	00a4      	lsls	r4, r4, #2
    32a2:	2300      	movs	r3, #0
    32a4:	58ce      	ldr	r6, [r1, r3]
    32a6:	50ee      	str	r6, [r5, r3]
    32a8:	3304      	adds	r3, #4
    32aa:	42a3      	cmp	r3, r4
    32ac:	d1fa      	bne.n	32a4 <memcpy+0x50>
    32ae:	18ed      	adds	r5, r5, r3
    32b0:	18c9      	adds	r1, r1, r3
    32b2:	2303      	movs	r3, #3
    32b4:	401a      	ands	r2, r3
    32b6:	d005      	beq.n	32c4 <memcpy+0x70>
    32b8:	2300      	movs	r3, #0
    32ba:	5ccc      	ldrb	r4, [r1, r3]
    32bc:	54ec      	strb	r4, [r5, r3]
    32be:	3301      	adds	r3, #1
    32c0:	4293      	cmp	r3, r2
    32c2:	d1fa      	bne.n	32ba <memcpy+0x66>
    32c4:	bdf0      	pop	{r4, r5, r6, r7, pc}
    32c6:	1c05      	adds	r5, r0, #0
    32c8:	2a00      	cmp	r2, #0
    32ca:	d1f5      	bne.n	32b8 <memcpy+0x64>
    32cc:	e7fa      	b.n	32c4 <memcpy+0x70>
    32ce:	1c05      	adds	r5, r0, #0
    32d0:	e7f2      	b.n	32b8 <memcpy+0x64>
    32d2:	1c1a      	adds	r2, r3, #0
    32d4:	e7f8      	b.n	32c8 <memcpy+0x74>
    32d6:	46c0      	nop			; (mov r8, r8)

000032d8 <strlen>:
strlen():
    32d8:	2300      	movs	r3, #0
    32da:	5cc2      	ldrb	r2, [r0, r3]
    32dc:	3301      	adds	r3, #1
    32de:	2a00      	cmp	r2, #0
    32e0:	d1fb      	bne.n	32da <strlen+0x2>
    32e2:	1e58      	subs	r0, r3, #1
    32e4:	4770      	bx	lr
    32e6:	46c0      	nop			; (mov r8, r8)

000032e8 <strncmp>:
strncmp():
    32e8:	b570      	push	{r4, r5, r6, lr}
    32ea:	1c05      	adds	r5, r0, #0
    32ec:	2000      	movs	r0, #0
    32ee:	2a00      	cmp	r2, #0
    32f0:	d02c      	beq.n	334c <strncmp+0x64>
    32f2:	1c2b      	adds	r3, r5, #0
    32f4:	430b      	orrs	r3, r1
    32f6:	079c      	lsls	r4, r3, #30
    32f8:	d129      	bne.n	334e <strncmp+0x66>
    32fa:	2a03      	cmp	r2, #3
    32fc:	d927      	bls.n	334e <strncmp+0x66>
    32fe:	682c      	ldr	r4, [r5, #0]
    3300:	680e      	ldr	r6, [r1, #0]
    3302:	42b4      	cmp	r4, r6
    3304:	d123      	bne.n	334e <strncmp+0x66>
    3306:	1f13      	subs	r3, r2, #4
    3308:	2b00      	cmp	r3, #0
    330a:	d01f      	beq.n	334c <strncmp+0x64>
    330c:	4e22      	ldr	r6, [pc, #136]	; (3398 <strncmp+0xb0>)
    330e:	19a2      	adds	r2, r4, r6
    3310:	4e22      	ldr	r6, [pc, #136]	; (339c <strncmp+0xb4>)
    3312:	43a2      	bics	r2, r4
    3314:	4232      	tst	r2, r6
    3316:	d00e      	beq.n	3336 <strncmp+0x4e>
    3318:	e018      	b.n	334c <strncmp+0x64>
    331a:	686a      	ldr	r2, [r5, #4]
    331c:	6849      	ldr	r1, [r1, #4]
    331e:	428a      	cmp	r2, r1
    3320:	d12e      	bne.n	3380 <strncmp+0x98>
    3322:	3b04      	subs	r3, #4
    3324:	2b00      	cmp	r3, #0
    3326:	d010      	beq.n	334a <strncmp+0x62>
    3328:	4d1b      	ldr	r5, [pc, #108]	; (3398 <strncmp+0xb0>)
    332a:	1951      	adds	r1, r2, r5
    332c:	4391      	bics	r1, r2
    332e:	4231      	tst	r1, r6
    3330:	d10b      	bne.n	334a <strncmp+0x62>
    3332:	1c21      	adds	r1, r4, #0
    3334:	1c05      	adds	r5, r0, #0
    3336:	1d28      	adds	r0, r5, #4
    3338:	1d0c      	adds	r4, r1, #4
    333a:	2b03      	cmp	r3, #3
    333c:	d8ed      	bhi.n	331a <strncmp+0x32>
    333e:	1e5a      	subs	r2, r3, #1
    3340:	2b00      	cmp	r3, #0
    3342:	d021      	beq.n	3388 <strncmp+0xa0>
    3344:	1c21      	adds	r1, r4, #0
    3346:	1c05      	adds	r5, r0, #0
    3348:	e002      	b.n	3350 <strncmp+0x68>
    334a:	2000      	movs	r0, #0
    334c:	bd70      	pop	{r4, r5, r6, pc}
    334e:	3a01      	subs	r2, #1
    3350:	782c      	ldrb	r4, [r5, #0]
    3352:	7808      	ldrb	r0, [r1, #0]
    3354:	4284      	cmp	r4, r0
    3356:	d11b      	bne.n	3390 <strncmp+0xa8>
    3358:	2a00      	cmp	r2, #0
    335a:	d0f6      	beq.n	334a <strncmp+0x62>
    335c:	2c00      	cmp	r4, #0
    335e:	d0f4      	beq.n	334a <strncmp+0x62>
    3360:	1c6b      	adds	r3, r5, #1
    3362:	3101      	adds	r1, #1
    3364:	18ad      	adds	r5, r5, r2
    3366:	e005      	b.n	3374 <strncmp+0x8c>
    3368:	42ab      	cmp	r3, r5
    336a:	d0ee      	beq.n	334a <strncmp+0x62>
    336c:	2c00      	cmp	r4, #0
    336e:	d0ec      	beq.n	334a <strncmp+0x62>
    3370:	3301      	adds	r3, #1
    3372:	3101      	adds	r1, #1
    3374:	781c      	ldrb	r4, [r3, #0]
    3376:	780a      	ldrb	r2, [r1, #0]
    3378:	4294      	cmp	r4, r2
    337a:	d0f5      	beq.n	3368 <strncmp+0x80>
    337c:	1aa0      	subs	r0, r4, r2
    337e:	e7e5      	b.n	334c <strncmp+0x64>
    3380:	1e5a      	subs	r2, r3, #1
    3382:	1c21      	adds	r1, r4, #0
    3384:	1c05      	adds	r5, r0, #0
    3386:	e7e3      	b.n	3350 <strncmp+0x68>
    3388:	792c      	ldrb	r4, [r5, #4]
    338a:	790a      	ldrb	r2, [r1, #4]
    338c:	1aa0      	subs	r0, r4, r2
    338e:	e7dd      	b.n	334c <strncmp+0x64>
    3390:	1c02      	adds	r2, r0, #0
    3392:	1aa0      	subs	r0, r4, r2
    3394:	e7da      	b.n	334c <strncmp+0x64>
    3396:	46c0      	nop			; (mov r8, r8)
    3398:	fefefeff 	.word	0xfefefeff
    339c:	80808080 	.word	0x80808080
$d():
    33a0:	706d6554 	.word	0x706d6554
    33a4:	74617265 	.word	0x74617265
    33a8:	20657275 	.word	0x20657275
    33ac:	00207369 	.word	0x00207369
    33b0:	00000000 	.word	0x00000000
    33b4:	432b5441 	.word	0x432b5441
    33b8:	54535049 	.word	0x54535049
    33bc:	3d545241 	.word	0x3d545241
    33c0:	50435422 	.word	0x50435422
    33c4:	34222c22 	.word	0x34222c22
    33c8:	34392e37 	.word	0x34392e37
    33cc:	3335312e 	.word	0x3335312e
    33d0:	2236352e 	.word	0x2236352e
    33d4:	3838382c 	.word	0x3838382c
    33d8:	00000038 	.word	0x00000038
    33dc:	00000000 	.word	0x00000000
    33e0:	040001ee 	.word	0x040001ee
    33e4:	00ff0000 	.word	0x00ff0000
    33e8:	00004360 	.word	0x00004360
    33ec:	00004646 	.word	0x00004646
    33f0:	00000a0d 	.word	0x00000a0d
    33f4:	00005441 	.word	0x00005441
    33f8:	00004b4f 	.word	0x00004b4f
    33fc:	432b5441 	.word	0x432b5441
    3400:	3f4e4950 	.word	0x3f4e4950
    3404:	00000000 	.word	0x00000000
    3408:	44414552 	.word	0x44414552
    340c:	00000059 	.word	0x00000059
    3410:	432b5441 	.word	0x432b5441
    3414:	54535049 	.word	0x54535049
    3418:	53555441 	.word	0x53555441
    341c:	0000303d 	.word	0x0000303d
    3420:	4e4e4f43 	.word	0x4e4e4f43
    3424:	20544345 	.word	0x20544345
    3428:	00004b4f 	.word	0x00004b4f
    342c:	49205049 	.word	0x49205049
    3430:	4954494e 	.word	0x4954494e
    3434:	00004c41 	.word	0x00004c41
    3438:	47205049 	.word	0x47205049
    343c:	41535250 	.word	0x41535250
    3440:	00005443 	.word	0x00005443
    3444:	43205049 	.word	0x43205049
    3448:	45534f4c 	.word	0x45534f4c
    344c:	00000000 	.word	0x00000000
    3450:	432b5441 	.word	0x432b5441
    3454:	45535049 	.word	0x45535049
    3458:	313d444e 	.word	0x313d444e
    345c:	00000000 	.word	0x00000000
    3460:	0000003e 	.word	0x0000003e
    3464:	432b5441 	.word	0x432b5441
    3468:	54544147 	.word	0x54544147
    346c:	0000313d 	.word	0x0000313d
    3470:	432b5441 	.word	0x432b5441
    3474:	54434147 	.word	0x54434147
    3478:	312c313d 	.word	0x312c313d
    347c:	00000000 	.word	0x00000000
    3480:	512b5441 	.word	0x512b5441
    3484:	4e455349 	.word	0x4e455349
    3488:	00003d44 	.word	0x00003d44
    348c:	00000c34 	.word	0x00000c34
    3490:	00000c2e 	.word	0x00000c2e
    3494:	00000c2e 	.word	0x00000c2e
    3498:	00000c24 	.word	0x00000c24
    349c:	00000b84 	.word	0x00000b84
    34a0:	00000b84 	.word	0x00000b84
    34a4:	00000c1a 	.word	0x00000c1a
    34a8:	00000c24 	.word	0x00000c24
    34ac:	00000b84 	.word	0x00000b84
    34b0:	00000c1a 	.word	0x00000c1a
    34b4:	00000b84 	.word	0x00000b84
    34b8:	00000c24 	.word	0x00000c24
    34bc:	00000b82 	.word	0x00000b82
    34c0:	00000b82 	.word	0x00000b82
    34c4:	00000b82 	.word	0x00000b82
    34c8:	00000cbc 	.word	0x00000cbc

000034cc <F6x8>:
	...
    34d4:	00002f00 00070000 14000007 147f147f     ./..............
    34e4:	7f2a2400 6200122a 23130864 55493600     .$*.*..bd..#.6IU
    34f4:	00005022 00000305 221c0000 00000041     "P........."A...
    3504:	001c2241 3e081400 08001408 08083e08     A".....>.....>..
    3514:	a0000000 08000060 08080808 60600000     ....`.........``
    3524:	20000000 02040810 49513e00 00003e45     ... .....>QIE>..
    3534:	00407f42 51614200 21004649 314b4541     B.@..BaQIF.!AEK1
    3544:	12141800 2700107f 39454545 494a3c00     .......'EEE9.<JI
    3554:	01003049 03050971 49493600 06003649     I0..q....6III6..
    3564:	1e294949 36360000 00000000 00003656     II)...66....V6..
    3574:	22140800 14000041 14141414 22410000     ..."A.........A"
    3584:	02000814 06095101 59493200 7c003e51     .....Q...2IYQ>.|
    3594:	7c121112 49497f00 3e003649 22414141     ...|..III6.>AAA"
    35a4:	41417f00 7f001c22 41494949 09097f00     ..AA"...IIIA....
    35b4:	3e000109 7a494941 08087f00 00007f08     ...>AIIz........
    35c4:	00417f41 41402000 7f00013f 41221408     A.A.. @A?....."A
    35d4:	40407f00 7f004040 7f020c02 08047f00     ..@@@@..........
    35e4:	3e007f10 3e414141 09097f00 3e000609     ...>AAA>.......>
    35f4:	5e215141 19097f00 46004629 31494949     AQ!^....)F.FIII1
    3604:	7f010100 3f000101 3f404040 40201f00     .......?@@@?.. @
    3614:	3f001f20 3f403840 08146300 07006314      ..?@8@?.c...c..
    3624:	07087008 49516100 00004345 0041417f     .p...aQIEC...AA.
    3634:	552a5500 0000552a 007f4141 01020400     .U*U*U..AA......
    3644:	40000402 40404040 02010000 20000004     ...@@@@@....... 
    3654:	78545454 44487f00 38003844 20444444     TTTx..HDD8.8DDD 
    3664:	44443800 38007f48 18545454 097e0800     .8DDH..8TTT...~.
    3674:	18000201 7ca4a4a4 04087f00 00007804     .......|.....x..
    3684:	00407d44 84804000 7f00007d 00442810     D}@..@..}....(D.
    3694:	7f410000 7c000040 78041804 04087c00     ..A.@..|...x.|..
    36a4:	38007804 38444444 2424fc00 18001824     .x.8DDD8..$$$...
    36b4:	fc182424 04087c00 48000804 20545454     $$...|.....HTTT 
    36c4:	443f0400 3c002040 7c204040 40201c00     ..?D@ .<@@ |.. @
    36d4:	3c001c20 3c403040 10284400 1c004428      ..<@0@<.D(.(D..
    36e4:	7ca0a0a0 54644400 1414444c 14141414     ...|.DdTLD......

000036f4 <F8X16>:
	...
    3704:	f8000000 00000000 33000000 00000030     ...........30...
    3714:	060c1000 00060c10 00000000 00000000     ................
    3724:	4078c040 004078c0 04043f04 0004043f     @.x@.x@..?..?...
    3734:	fc887000 00003008 ff201800 00001e21     .p...0.... .!...
    3744:	00f008f0 000018e0 031c2100 001e211e     .........!...!..
    3754:	8808f000 00000070 2423211e 10212719     ....p....!#$.'!.
    3764:	000e1610 00000000 00000000 00000000     ................
    3774:	e0000000 00020418 07000000 00402018     ............. @.
    3784:	18040200 000000e0 18204000 00000007     .........@ .....
    3794:	f0804040 00404080 0f010202 00020201     @@...@@.........
    37a4:	f0000000 00000000 1f010101 00010101     ................
	...
    37bc:	0070b080 00000000 00000000 00000000     ..p.............
    37cc:	01010100 01010101 00000000 00000000     ................
    37dc:	00303000 00000000 00000000 04186080     .00..........`..
    37ec:	06186000 00000001 0810e000 00e01008     .`..............
    37fc:	20100f00 000f1020 f8101000 00000000     ...  ...........
    380c:	3f202000 00002020 08087000 00708808     .  ?  ...p....p.
    381c:	24283000 00302122 88083000 00304888     .0($"!0..0...H0.
    382c:	20201800 000e1120 20c00000 0000f810     ..   ...... ....
    383c:	24040700 00243f24 8808f800 00080888     ...$$?$.........
    384c:	20211900 000e1120 8810e000 00001888     ..!  ...........
    385c:	20110f00 000e1120 08083800 000838c8     ...  ....8...8..
    386c:	3f000000 00000000 08887000 00708808     ...?.....p....p.
    387c:	21221c00 001c2221 0810e000 00e01008     .."!!"..........
    388c:	22310000 000f1122 c0000000 000000c0     ..1""...........
    389c:	30000000 00000030 80000000 00000000     ...00...........
    38ac:	60800000 00000000 40800000 00081020     ...`.......@ ...
    38bc:	04020100 00201008 40404040 00404040     ...... .@@@@@@@.
    38cc:	04040404 00040404 20100800 00008040     ........... @...
    38dc:	08102000 00010204 08487000 00f00808     . .......pH.....
    38ec:	30000000 00000136 28c830c0 00e010e8     ...06....0.(....
    38fc:	24271807 000b1423 38c00000 000000e0     ..'$#......8....
    390c:	02233c20 20382702 8888f808 00007088      <#..'8 .....p..
    391c:	20203f20 000e1120 080830c0 00380808      ?   ....0....8.
    392c:	20201807 00081020 0808f808 00e01008     ..   ...........
    393c:	20203f20 000f1020 8888f808 001008e8      ?   ...........
    394c:	20203f20 00182023 8888f808 001008e8      ?  # ..........
    395c:	00203f20 00000003 080830c0 00003808      ? ......0...8..
    396c:	20201807 00021e22 0008f808 08f80800     ..  "...........
    397c:	01213f20 203f2101 f8080800 00000808      ?!..!? ........
    398c:	3f202000 00002020 08080000 000808f8     .  ?  ..........
    399c:	808080c0 0000007f c088f808 00081828     ............(...
    39ac:	01203f20 00203826 0008f808 00000000      ? .&8 .........
    39bc:	20203f20 00302020 00f8f808 0008f8f8      ?    0.........
    39cc:	3f003f20 00203f00 c030f808 08f80800      ?.?.? ...0.....
    39dc:	00203f20 003f1807 080810e0 00e01008      ? ...?.........
    39ec:	2020100f 000f1020 0808f808 00f00808     ..   ...........
    39fc:	01213f20 00000101 080810e0 00e01008      ?!.............
    3a0c:	2424180f 004f5038 8888f808 00708888     ..$$8PO.......p.
    3a1c:	00203f20 20300c03 08887000 00380808      ? ...0 .p....8.
    3a2c:	21203800 001c2221 f8080818 00180808     .8 !!"..........
    3a3c:	3f200000 00000020 0008f808 08f80800     .. ? ...........
    3a4c:	20201f00 001f2020 00887808 0838c800     ..    ...x....8.
    3a5c:	38070000 0000010e f80008f8 00f80800     ...8............
    3a6c:	00073c03 00033c07 80681808 08186880     .<...<....h..h..
    3a7c:	032c3020 20302c03 00c83808 000838c8      0,..,0 .8...8..
    3a8c:	3f200000 00000020 08080810 000838c8     .. ? ........8..
    3a9c:	21263820 00182020 fe000000 00020202      8&!  ..........
    3aac:	7f000000 00404040 c0300c00 00000000     ....@@@...0.....
    3abc:	01000000 00c03806 02020200 000000fe     .....8..........
    3acc:	40404000 0000007f 02040000 00040202     .@@@............
	...
    3aec:	80808080 80808080 04020200 00000000     ................
	...
    3b04:	80800000 00008080 22241900 203f2222     ..........$"""? 
    3b14:	8000f808 00000080 20113f00 000e1120     .........?.  ...
    3b24:	80000000 00008080 20110e00 00112020     ...........   ..
    3b34:	80000000 00f88880 20110e00 203f1020     ...........  .? 
    3b44:	80800000 00008080 22221f00 00132222     ..........""""..
    3b54:	f0808000 18888888 3f202000 00002020     .........  ?  ..
    3b64:	80800000 00808080 94946b00 00609394     .........k....`.
    3b74:	8000f808 00008080 00213f20 203f2000     ........ ?!.. ? 
    3b84:	98988000 00000000 3f202000 00002020     .........  ?  ..
    3b94:	80000000 00009898 8080c000 00007f80     ................
    3ba4:	0000f808 00808080 02243f20 0020302d     ........ ?$.-0 .
    3bb4:	f8080800 00000000 3f202000 00002020     .........  ?  ..
    3bc4:	80808080 00808080 00203f20 3f00203f     ........ ? .? .?
    3bd4:	80008080 00008080 00213f20 203f2000     ........ ?!.. ? 
    3be4:	80800000 00008080 20201f00 001f2020     ..........    ..
    3bf4:	80008080 00000080 20a1ff80 000e1120     ...........  ...
    3c04:	80000000 00808080 20110e00 80ffa020     ...........  ...
    3c14:	00808080 00808080 213f2020 00010020     ........  ?! ...
    3c24:	80800000 00808080 24243300 00192424     .........3$$$$..
    3c34:	e0808000 00008080 1f000000 00002020     ............  ..
    3c44:	00008080 00808000 20201f00 203f1020     ..........   .? 
    3c54:	00808080 80808000 300e0100 00010608     ...........0....
    3c64:	80008080 80808000 030c300f 000f300c     .........0...0..
    3c74:	00808000 00808080 2e312000 0020310e     ......... 1..1 .
    3c84:	00808080 80808000 708e8180 00010618     ...........p....
    3c94:	80808000 00808080 2c302100 00302122     .........!0,"!0.
    3ca4:	00000000 02027c80 00000000 40403f00     .....|.......?@@
    3cb4:	00000000 000000ff 00000000 000000ff     ................
    3cc4:	7c020200 00000080 3f404000 00000000     ...|.....@@?....
    3cd4:	01010600 04040202 00000000 00000000     ................

00003ce4 <UART_ARR>:
    3ce4:	4006b000 4006c000                       ...@...@

00003cec <PORT_ARR>:
    3cec:	40049000 4004a000 4004b000 4004c000     ...@...@...@...@
    3cfc:	4004d000                                ...@

00003d00 <GPIO_ARR>:
    3d00:	400ff000 400ff040 400ff080 400ff0c0     ...@@..@...@...@
    3d10:	400ff100                                ...@
